(dp1
S'LV'
p2
ccollections
OrderedDict
p3
((lp4
(lp5
S'LV_1'
p6
aS'/gpfs/work/m/mfa5147/OptMAVEn_Zika/OptMAVEn2.0/databases/MAPs/LV/LV_1.pdb'
p7
aa(lp8
S'LV_10'
p9
aS'/gpfs/work/m/mfa5147/OptMAVEn_Zika/OptMAVEn2.0/databases/MAPs/LV/LV_10.pdb'
p10
aa(lp11
S'LV_11'
p12
aS'/gpfs/work/m/mfa5147/OptMAVEn_Zika/OptMAVEn2.0/databases/MAPs/LV/LV_11.pdb'
p13
aa(lp14
S'LV_12'
p15
aS'/gpfs/work/m/mfa5147/OptMAVEn_Zika/OptMAVEn2.0/databases/MAPs/LV/LV_12.pdb'
p16
aa(lp17
S'LV_13'
p18
aS'/gpfs/work/m/mfa5147/OptMAVEn_Zika/OptMAVEn2.0/databases/MAPs/LV/LV_13.pdb'
p19
aa(lp20
S'LV_14'
p21
aS'/gpfs/work/m/mfa5147/OptMAVEn_Zika/OptMAVEn2.0/databases/MAPs/LV/LV_14.pdb'
p22
aa(lp23
S'LV_15'
p24
aS'/gpfs/work/m/mfa5147/OptMAVEn_Zika/OptMAVEn2.0/databases/MAPs/LV/LV_15.pdb'
p25
aa(lp26
S'LV_16'
p27
aS'/gpfs/work/m/mfa5147/OptMAVEn_Zika/OptMAVEn2.0/databases/MAPs/LV/LV_16.pdb'
p28
aa(lp29
S'LV_17'
p30
aS'/gpfs/work/m/mfa5147/OptMAVEn_Zika/OptMAVEn2.0/databases/MAPs/LV/LV_17.pdb'
p31
aa(lp32
S'LV_18'
p33
aS'/gpfs/work/m/mfa5147/OptMAVEn_Zika/OptMAVEn2.0/databases/MAPs/LV/LV_18.pdb'
p34
aa(lp35
S'LV_19'
p36
aS'/gpfs/work/m/mfa5147/OptMAVEn_Zika/OptMAVEn2.0/databases/MAPs/LV/LV_19.pdb'
p37
aa(lp38
S'LV_2'
p39
aS'/gpfs/work/m/mfa5147/OptMAVEn_Zika/OptMAVEn2.0/databases/MAPs/LV/LV_2.pdb'
p40
aa(lp41
S'LV_20'
p42
aS'/gpfs/work/m/mfa5147/OptMAVEn_Zika/OptMAVEn2.0/databases/MAPs/LV/LV_20.pdb'
p43
aa(lp44
S'LV_21'
p45
aS'/gpfs/work/m/mfa5147/OptMAVEn_Zika/OptMAVEn2.0/databases/MAPs/LV/LV_21.pdb'
p46
aa(lp47
S'LV_22'
p48
aS'/gpfs/work/m/mfa5147/OptMAVEn_Zika/OptMAVEn2.0/databases/MAPs/LV/LV_22.pdb'
p49
aa(lp50
S'LV_23'
p51
aS'/gpfs/work/m/mfa5147/OptMAVEn_Zika/OptMAVEn2.0/databases/MAPs/LV/LV_23.pdb'
p52
aa(lp53
S'LV_24'
p54
aS'/gpfs/work/m/mfa5147/OptMAVEn_Zika/OptMAVEn2.0/databases/MAPs/LV/LV_24.pdb'
p55
aa(lp56
S'LV_25'
p57
aS'/gpfs/work/m/mfa5147/OptMAVEn_Zika/OptMAVEn2.0/databases/MAPs/LV/LV_25.pdb'
p58
aa(lp59
S'LV_26'
p60
aS'/gpfs/work/m/mfa5147/OptMAVEn_Zika/OptMAVEn2.0/databases/MAPs/LV/LV_26.pdb'
p61
aa(lp62
S'LV_27'
p63
aS'/gpfs/work/m/mfa5147/OptMAVEn_Zika/OptMAVEn2.0/databases/MAPs/LV/LV_27.pdb'
p64
aa(lp65
S'LV_28'
p66
aS'/gpfs/work/m/mfa5147/OptMAVEn_Zika/OptMAVEn2.0/databases/MAPs/LV/LV_28.pdb'
p67
aa(lp68
S'LV_29'
p69
aS'/gpfs/work/m/mfa5147/OptMAVEn_Zika/OptMAVEn2.0/databases/MAPs/LV/LV_29.pdb'
p70
aa(lp71
S'LV_3'
p72
aS'/gpfs/work/m/mfa5147/OptMAVEn_Zika/OptMAVEn2.0/databases/MAPs/LV/LV_3.pdb'
p73
aa(lp74
S'LV_30'
p75
aS'/gpfs/work/m/mfa5147/OptMAVEn_Zika/OptMAVEn2.0/databases/MAPs/LV/LV_30.pdb'
p76
aa(lp77
S'LV_31'
p78
aS'/gpfs/work/m/mfa5147/OptMAVEn_Zika/OptMAVEn2.0/databases/MAPs/LV/LV_31.pdb'
p79
aa(lp80
S'LV_32'
p81
aS'/gpfs/work/m/mfa5147/OptMAVEn_Zika/OptMAVEn2.0/databases/MAPs/LV/LV_32.pdb'
p82
aa(lp83
S'LV_33'
p84
aS'/gpfs/work/m/mfa5147/OptMAVEn_Zika/OptMAVEn2.0/databases/MAPs/LV/LV_33.pdb'
p85
aa(lp86
S'LV_34'
p87
aS'/gpfs/work/m/mfa5147/OptMAVEn_Zika/OptMAVEn2.0/databases/MAPs/LV/LV_34.pdb'
p88
aa(lp89
S'LV_35'
p90
aS'/gpfs/work/m/mfa5147/OptMAVEn_Zika/OptMAVEn2.0/databases/MAPs/LV/LV_35.pdb'
p91
aa(lp92
S'LV_36'
p93
aS'/gpfs/work/m/mfa5147/OptMAVEn_Zika/OptMAVEn2.0/databases/MAPs/LV/LV_36.pdb'
p94
aa(lp95
S'LV_37'
p96
aS'/gpfs/work/m/mfa5147/OptMAVEn_Zika/OptMAVEn2.0/databases/MAPs/LV/LV_37.pdb'
p97
aa(lp98
S'LV_38'
p99
aS'/gpfs/work/m/mfa5147/OptMAVEn_Zika/OptMAVEn2.0/databases/MAPs/LV/LV_38.pdb'
p100
aa(lp101
S'LV_4'
p102
aS'/gpfs/work/m/mfa5147/OptMAVEn_Zika/OptMAVEn2.0/databases/MAPs/LV/LV_4.pdb'
p103
aa(lp104
S'LV_5'
p105
aS'/gpfs/work/m/mfa5147/OptMAVEn_Zika/OptMAVEn2.0/databases/MAPs/LV/LV_5.pdb'
p106
aa(lp107
S'LV_7'
p108
aS'/gpfs/work/m/mfa5147/OptMAVEn_Zika/OptMAVEn2.0/databases/MAPs/LV/LV_7.pdb'
p109
aa(lp110
S'LV_8'
p111
aS'/gpfs/work/m/mfa5147/OptMAVEn_Zika/OptMAVEn2.0/databases/MAPs/LV/LV_8.pdb'
p112
aa(lp113
S'LV_9'
p114
aS'/gpfs/work/m/mfa5147/OptMAVEn_Zika/OptMAVEn2.0/databases/MAPs/LV/LV_9.pdb'
p115
aatRp116
sS'KJ'
p117
g3
((lp118
(lp119
S'KJ_1'
p120
aS'/gpfs/work/m/mfa5147/OptMAVEn_Zika/OptMAVEn2.0/databases/MAPs/KJ/KJ_1.pdb'
p121
aa(lp122
S'KJ_2'
p123
aS'/gpfs/work/m/mfa5147/OptMAVEn_Zika/OptMAVEn2.0/databases/MAPs/KJ/KJ_2.pdb'
p124
aa(lp125
S'KJ_3'
p126
aS'/gpfs/work/m/mfa5147/OptMAVEn_Zika/OptMAVEn2.0/databases/MAPs/KJ/KJ_3.pdb'
p127
aa(lp128
S'KJ_4'
p129
aS'/gpfs/work/m/mfa5147/OptMAVEn_Zika/OptMAVEn2.0/databases/MAPs/KJ/KJ_4.pdb'
p130
aa(lp131
S'KJ_5'
p132
aS'/gpfs/work/m/mfa5147/OptMAVEn_Zika/OptMAVEn2.0/databases/MAPs/KJ/KJ_5.pdb'
p133
aatRp134
sS'KCDR3'
p135
g3
((lp136
(lp137
S'KCDR3_1'
p138
aS'/gpfs/work/m/mfa5147/OptMAVEn_Zika/OptMAVEn2.0/databases/MAPs/KCDR3/KCDR3_1.pdb'
p139
aa(lp140
S'KCDR3_10'
p141
aS'/gpfs/work/m/mfa5147/OptMAVEn_Zika/OptMAVEn2.0/databases/MAPs/KCDR3/KCDR3_10.pdb'
p142
aa(lp143
S'KCDR3_100'
p144
aS'/gpfs/work/m/mfa5147/OptMAVEn_Zika/OptMAVEn2.0/databases/MAPs/KCDR3/KCDR3_100.pdb'
p145
aa(lp146
S'KCDR3_101'
p147
aS'/gpfs/work/m/mfa5147/OptMAVEn_Zika/OptMAVEn2.0/databases/MAPs/KCDR3/KCDR3_101.pdb'
p148
aa(lp149
S'KCDR3_102'
p150
aS'/gpfs/work/m/mfa5147/OptMAVEn_Zika/OptMAVEn2.0/databases/MAPs/KCDR3/KCDR3_102.pdb'
p151
aa(lp152
S'KCDR3_103'
p153
aS'/gpfs/work/m/mfa5147/OptMAVEn_Zika/OptMAVEn2.0/databases/MAPs/KCDR3/KCDR3_103.pdb'
p154
aa(lp155
S'KCDR3_104'
p156
aS'/gpfs/work/m/mfa5147/OptMAVEn_Zika/OptMAVEn2.0/databases/MAPs/KCDR3/KCDR3_104.pdb'
p157
aa(lp158
S'KCDR3_105'
p159
aS'/gpfs/work/m/mfa5147/OptMAVEn_Zika/OptMAVEn2.0/databases/MAPs/KCDR3/KCDR3_105.pdb'
p160
aa(lp161
S'KCDR3_106'
p162
aS'/gpfs/work/m/mfa5147/OptMAVEn_Zika/OptMAVEn2.0/databases/MAPs/KCDR3/KCDR3_106.pdb'
p163
aa(lp164
S'KCDR3_107'
p165
aS'/gpfs/work/m/mfa5147/OptMAVEn_Zika/OptMAVEn2.0/databases/MAPs/KCDR3/KCDR3_107.pdb'
p166
aa(lp167
S'KCDR3_108'
p168
aS'/gpfs/work/m/mfa5147/OptMAVEn_Zika/OptMAVEn2.0/databases/MAPs/KCDR3/KCDR3_108.pdb'
p169
aa(lp170
S'KCDR3_109'
p171
aS'/gpfs/work/m/mfa5147/OptMAVEn_Zika/OptMAVEn2.0/databases/MAPs/KCDR3/KCDR3_109.pdb'
p172
aa(lp173
S'KCDR3_11'
p174
aS'/gpfs/work/m/mfa5147/OptMAVEn_Zika/OptMAVEn2.0/databases/MAPs/KCDR3/KCDR3_11.pdb'
p175
aa(lp176
S'KCDR3_110'
p177
aS'/gpfs/work/m/mfa5147/OptMAVEn_Zika/OptMAVEn2.0/databases/MAPs/KCDR3/KCDR3_110.pdb'
p178
aa(lp179
S'KCDR3_111'
p180
aS'/gpfs/work/m/mfa5147/OptMAVEn_Zika/OptMAVEn2.0/databases/MAPs/KCDR3/KCDR3_111.pdb'
p181
aa(lp182
S'KCDR3_112'
p183
aS'/gpfs/work/m/mfa5147/OptMAVEn_Zika/OptMAVEn2.0/databases/MAPs/KCDR3/KCDR3_112.pdb'
p184
aa(lp185
S'KCDR3_113'
p186
aS'/gpfs/work/m/mfa5147/OptMAVEn_Zika/OptMAVEn2.0/databases/MAPs/KCDR3/KCDR3_113.pdb'
p187
aa(lp188
S'KCDR3_114'
p189
aS'/gpfs/work/m/mfa5147/OptMAVEn_Zika/OptMAVEn2.0/databases/MAPs/KCDR3/KCDR3_114.pdb'
p190
aa(lp191
S'KCDR3_115'
p192
aS'/gpfs/work/m/mfa5147/OptMAVEn_Zika/OptMAVEn2.0/databases/MAPs/KCDR3/KCDR3_115.pdb'
p193
aa(lp194
S'KCDR3_116'
p195
aS'/gpfs/work/m/mfa5147/OptMAVEn_Zika/OptMAVEn2.0/databases/MAPs/KCDR3/KCDR3_116.pdb'
p196
aa(lp197
S'KCDR3_117'
p198
aS'/gpfs/work/m/mfa5147/OptMAVEn_Zika/OptMAVEn2.0/databases/MAPs/KCDR3/KCDR3_117.pdb'
p199
aa(lp200
S'KCDR3_118'
p201
aS'/gpfs/work/m/mfa5147/OptMAVEn_Zika/OptMAVEn2.0/databases/MAPs/KCDR3/KCDR3_118.pdb'
p202
aa(lp203
S'KCDR3_119'
p204
aS'/gpfs/work/m/mfa5147/OptMAVEn_Zika/OptMAVEn2.0/databases/MAPs/KCDR3/KCDR3_119.pdb'
p205
aa(lp206
S'KCDR3_12'
p207
aS'/gpfs/work/m/mfa5147/OptMAVEn_Zika/OptMAVEn2.0/databases/MAPs/KCDR3/KCDR3_12.pdb'
p208
aa(lp209
S'KCDR3_120'
p210
aS'/gpfs/work/m/mfa5147/OptMAVEn_Zika/OptMAVEn2.0/databases/MAPs/KCDR3/KCDR3_120.pdb'
p211
aa(lp212
S'KCDR3_121'
p213
aS'/gpfs/work/m/mfa5147/OptMAVEn_Zika/OptMAVEn2.0/databases/MAPs/KCDR3/KCDR3_121.pdb'
p214
aa(lp215
S'KCDR3_122'
p216
aS'/gpfs/work/m/mfa5147/OptMAVEn_Zika/OptMAVEn2.0/databases/MAPs/KCDR3/KCDR3_122.pdb'
p217
aa(lp218
S'KCDR3_123'
p219
aS'/gpfs/work/m/mfa5147/OptMAVEn_Zika/OptMAVEn2.0/databases/MAPs/KCDR3/KCDR3_123.pdb'
p220
aa(lp221
S'KCDR3_124'
p222
aS'/gpfs/work/m/mfa5147/OptMAVEn_Zika/OptMAVEn2.0/databases/MAPs/KCDR3/KCDR3_124.pdb'
p223
aa(lp224
S'KCDR3_125'
p225
aS'/gpfs/work/m/mfa5147/OptMAVEn_Zika/OptMAVEn2.0/databases/MAPs/KCDR3/KCDR3_125.pdb'
p226
aa(lp227
S'KCDR3_126'
p228
aS'/gpfs/work/m/mfa5147/OptMAVEn_Zika/OptMAVEn2.0/databases/MAPs/KCDR3/KCDR3_126.pdb'
p229
aa(lp230
S'KCDR3_127'
p231
aS'/gpfs/work/m/mfa5147/OptMAVEn_Zika/OptMAVEn2.0/databases/MAPs/KCDR3/KCDR3_127.pdb'
p232
aa(lp233
S'KCDR3_128'
p234
aS'/gpfs/work/m/mfa5147/OptMAVEn_Zika/OptMAVEn2.0/databases/MAPs/KCDR3/KCDR3_128.pdb'
p235
aa(lp236
S'KCDR3_129'
p237
aS'/gpfs/work/m/mfa5147/OptMAVEn_Zika/OptMAVEn2.0/databases/MAPs/KCDR3/KCDR3_129.pdb'
p238
aa(lp239
S'KCDR3_13'
p240
aS'/gpfs/work/m/mfa5147/OptMAVEn_Zika/OptMAVEn2.0/databases/MAPs/KCDR3/KCDR3_13.pdb'
p241
aa(lp242
S'KCDR3_130'
p243
aS'/gpfs/work/m/mfa5147/OptMAVEn_Zika/OptMAVEn2.0/databases/MAPs/KCDR3/KCDR3_130.pdb'
p244
aa(lp245
S'KCDR3_131'
p246
aS'/gpfs/work/m/mfa5147/OptMAVEn_Zika/OptMAVEn2.0/databases/MAPs/KCDR3/KCDR3_131.pdb'
p247
aa(lp248
S'KCDR3_132'
p249
aS'/gpfs/work/m/mfa5147/OptMAVEn_Zika/OptMAVEn2.0/databases/MAPs/KCDR3/KCDR3_132.pdb'
p250
aa(lp251
S'KCDR3_133'
p252
aS'/gpfs/work/m/mfa5147/OptMAVEn_Zika/OptMAVEn2.0/databases/MAPs/KCDR3/KCDR3_133.pdb'
p253
aa(lp254
S'KCDR3_134'
p255
aS'/gpfs/work/m/mfa5147/OptMAVEn_Zika/OptMAVEn2.0/databases/MAPs/KCDR3/KCDR3_134.pdb'
p256
aa(lp257
S'KCDR3_135'
p258
aS'/gpfs/work/m/mfa5147/OptMAVEn_Zika/OptMAVEn2.0/databases/MAPs/KCDR3/KCDR3_135.pdb'
p259
aa(lp260
S'KCDR3_136'
p261
aS'/gpfs/work/m/mfa5147/OptMAVEn_Zika/OptMAVEn2.0/databases/MAPs/KCDR3/KCDR3_136.pdb'
p262
aa(lp263
S'KCDR3_137'
p264
aS'/gpfs/work/m/mfa5147/OptMAVEn_Zika/OptMAVEn2.0/databases/MAPs/KCDR3/KCDR3_137.pdb'
p265
aa(lp266
S'KCDR3_138'
p267
aS'/gpfs/work/m/mfa5147/OptMAVEn_Zika/OptMAVEn2.0/databases/MAPs/KCDR3/KCDR3_138.pdb'
p268
aa(lp269
S'KCDR3_139'
p270
aS'/gpfs/work/m/mfa5147/OptMAVEn_Zika/OptMAVEn2.0/databases/MAPs/KCDR3/KCDR3_139.pdb'
p271
aa(lp272
S'KCDR3_14'
p273
aS'/gpfs/work/m/mfa5147/OptMAVEn_Zika/OptMAVEn2.0/databases/MAPs/KCDR3/KCDR3_14.pdb'
p274
aa(lp275
S'KCDR3_140'
p276
aS'/gpfs/work/m/mfa5147/OptMAVEn_Zika/OptMAVEn2.0/databases/MAPs/KCDR3/KCDR3_140.pdb'
p277
aa(lp278
S'KCDR3_141'
p279
aS'/gpfs/work/m/mfa5147/OptMAVEn_Zika/OptMAVEn2.0/databases/MAPs/KCDR3/KCDR3_141.pdb'
p280
aa(lp281
S'KCDR3_142'
p282
aS'/gpfs/work/m/mfa5147/OptMAVEn_Zika/OptMAVEn2.0/databases/MAPs/KCDR3/KCDR3_142.pdb'
p283
aa(lp284
S'KCDR3_143'
p285
aS'/gpfs/work/m/mfa5147/OptMAVEn_Zika/OptMAVEn2.0/databases/MAPs/KCDR3/KCDR3_143.pdb'
p286
aa(lp287
S'KCDR3_144'
p288
aS'/gpfs/work/m/mfa5147/OptMAVEn_Zika/OptMAVEn2.0/databases/MAPs/KCDR3/KCDR3_144.pdb'
p289
aa(lp290
S'KCDR3_145'
p291
aS'/gpfs/work/m/mfa5147/OptMAVEn_Zika/OptMAVEn2.0/databases/MAPs/KCDR3/KCDR3_145.pdb'
p292
aa(lp293
S'KCDR3_146'
p294
aS'/gpfs/work/m/mfa5147/OptMAVEn_Zika/OptMAVEn2.0/databases/MAPs/KCDR3/KCDR3_146.pdb'
p295
aa(lp296
S'KCDR3_147'
p297
aS'/gpfs/work/m/mfa5147/OptMAVEn_Zika/OptMAVEn2.0/databases/MAPs/KCDR3/KCDR3_147.pdb'
p298
aa(lp299
S'KCDR3_148'
p300
aS'/gpfs/work/m/mfa5147/OptMAVEn_Zika/OptMAVEn2.0/databases/MAPs/KCDR3/KCDR3_148.pdb'
p301
aa(lp302
S'KCDR3_149'
p303
aS'/gpfs/work/m/mfa5147/OptMAVEn_Zika/OptMAVEn2.0/databases/MAPs/KCDR3/KCDR3_149.pdb'
p304
aa(lp305
S'KCDR3_15'
p306
aS'/gpfs/work/m/mfa5147/OptMAVEn_Zika/OptMAVEn2.0/databases/MAPs/KCDR3/KCDR3_15.pdb'
p307
aa(lp308
S'KCDR3_150'
p309
aS'/gpfs/work/m/mfa5147/OptMAVEn_Zika/OptMAVEn2.0/databases/MAPs/KCDR3/KCDR3_150.pdb'
p310
aa(lp311
S'KCDR3_151'
p312
aS'/gpfs/work/m/mfa5147/OptMAVEn_Zika/OptMAVEn2.0/databases/MAPs/KCDR3/KCDR3_151.pdb'
p313
aa(lp314
S'KCDR3_152'
p315
aS'/gpfs/work/m/mfa5147/OptMAVEn_Zika/OptMAVEn2.0/databases/MAPs/KCDR3/KCDR3_152.pdb'
p316
aa(lp317
S'KCDR3_153'
p318
aS'/gpfs/work/m/mfa5147/OptMAVEn_Zika/OptMAVEn2.0/databases/MAPs/KCDR3/KCDR3_153.pdb'
p319
aa(lp320
S'KCDR3_154'
p321
aS'/gpfs/work/m/mfa5147/OptMAVEn_Zika/OptMAVEn2.0/databases/MAPs/KCDR3/KCDR3_154.pdb'
p322
aa(lp323
S'KCDR3_155'
p324
aS'/gpfs/work/m/mfa5147/OptMAVEn_Zika/OptMAVEn2.0/databases/MAPs/KCDR3/KCDR3_155.pdb'
p325
aa(lp326
S'KCDR3_156'
p327
aS'/gpfs/work/m/mfa5147/OptMAVEn_Zika/OptMAVEn2.0/databases/MAPs/KCDR3/KCDR3_156.pdb'
p328
aa(lp329
S'KCDR3_157'
p330
aS'/gpfs/work/m/mfa5147/OptMAVEn_Zika/OptMAVEn2.0/databases/MAPs/KCDR3/KCDR3_157.pdb'
p331
aa(lp332
S'KCDR3_158'
p333
aS'/gpfs/work/m/mfa5147/OptMAVEn_Zika/OptMAVEn2.0/databases/MAPs/KCDR3/KCDR3_158.pdb'
p334
aa(lp335
S'KCDR3_159'
p336
aS'/gpfs/work/m/mfa5147/OptMAVEn_Zika/OptMAVEn2.0/databases/MAPs/KCDR3/KCDR3_159.pdb'
p337
aa(lp338
S'KCDR3_16'
p339
aS'/gpfs/work/m/mfa5147/OptMAVEn_Zika/OptMAVEn2.0/databases/MAPs/KCDR3/KCDR3_16.pdb'
p340
aa(lp341
S'KCDR3_160'
p342
aS'/gpfs/work/m/mfa5147/OptMAVEn_Zika/OptMAVEn2.0/databases/MAPs/KCDR3/KCDR3_160.pdb'
p343
aa(lp344
S'KCDR3_161'
p345
aS'/gpfs/work/m/mfa5147/OptMAVEn_Zika/OptMAVEn2.0/databases/MAPs/KCDR3/KCDR3_161.pdb'
p346
aa(lp347
S'KCDR3_162'
p348
aS'/gpfs/work/m/mfa5147/OptMAVEn_Zika/OptMAVEn2.0/databases/MAPs/KCDR3/KCDR3_162.pdb'
p349
aa(lp350
S'KCDR3_163'
p351
aS'/gpfs/work/m/mfa5147/OptMAVEn_Zika/OptMAVEn2.0/databases/MAPs/KCDR3/KCDR3_163.pdb'
p352
aa(lp353
S'KCDR3_164'
p354
aS'/gpfs/work/m/mfa5147/OptMAVEn_Zika/OptMAVEn2.0/databases/MAPs/KCDR3/KCDR3_164.pdb'
p355
aa(lp356
S'KCDR3_165'
p357
aS'/gpfs/work/m/mfa5147/OptMAVEn_Zika/OptMAVEn2.0/databases/MAPs/KCDR3/KCDR3_165.pdb'
p358
aa(lp359
S'KCDR3_166'
p360
aS'/gpfs/work/m/mfa5147/OptMAVEn_Zika/OptMAVEn2.0/databases/MAPs/KCDR3/KCDR3_166.pdb'
p361
aa(lp362
S'KCDR3_167'
p363
aS'/gpfs/work/m/mfa5147/OptMAVEn_Zika/OptMAVEn2.0/databases/MAPs/KCDR3/KCDR3_167.pdb'
p364
aa(lp365
S'KCDR3_168'
p366
aS'/gpfs/work/m/mfa5147/OptMAVEn_Zika/OptMAVEn2.0/databases/MAPs/KCDR3/KCDR3_168.pdb'
p367
aa(lp368
S'KCDR3_169'
p369
aS'/gpfs/work/m/mfa5147/OptMAVEn_Zika/OptMAVEn2.0/databases/MAPs/KCDR3/KCDR3_169.pdb'
p370
aa(lp371
S'KCDR3_17'
p372
aS'/gpfs/work/m/mfa5147/OptMAVEn_Zika/OptMAVEn2.0/databases/MAPs/KCDR3/KCDR3_17.pdb'
p373
aa(lp374
S'KCDR3_170'
p375
aS'/gpfs/work/m/mfa5147/OptMAVEn_Zika/OptMAVEn2.0/databases/MAPs/KCDR3/KCDR3_170.pdb'
p376
aa(lp377
S'KCDR3_171'
p378
aS'/gpfs/work/m/mfa5147/OptMAVEn_Zika/OptMAVEn2.0/databases/MAPs/KCDR3/KCDR3_171.pdb'
p379
aa(lp380
S'KCDR3_172'
p381
aS'/gpfs/work/m/mfa5147/OptMAVEn_Zika/OptMAVEn2.0/databases/MAPs/KCDR3/KCDR3_172.pdb'
p382
aa(lp383
S'KCDR3_173'
p384
aS'/gpfs/work/m/mfa5147/OptMAVEn_Zika/OptMAVEn2.0/databases/MAPs/KCDR3/KCDR3_173.pdb'
p385
aa(lp386
S'KCDR3_174'
p387
aS'/gpfs/work/m/mfa5147/OptMAVEn_Zika/OptMAVEn2.0/databases/MAPs/KCDR3/KCDR3_174.pdb'
p388
aa(lp389
S'KCDR3_175'
p390
aS'/gpfs/work/m/mfa5147/OptMAVEn_Zika/OptMAVEn2.0/databases/MAPs/KCDR3/KCDR3_175.pdb'
p391
aa(lp392
S'KCDR3_176'
p393
aS'/gpfs/work/m/mfa5147/OptMAVEn_Zika/OptMAVEn2.0/databases/MAPs/KCDR3/KCDR3_176.pdb'
p394
aa(lp395
S'KCDR3_177'
p396
aS'/gpfs/work/m/mfa5147/OptMAVEn_Zika/OptMAVEn2.0/databases/MAPs/KCDR3/KCDR3_177.pdb'
p397
aa(lp398
S'KCDR3_178'
p399
aS'/gpfs/work/m/mfa5147/OptMAVEn_Zika/OptMAVEn2.0/databases/MAPs/KCDR3/KCDR3_178.pdb'
p400
aa(lp401
S'KCDR3_179'
p402
aS'/gpfs/work/m/mfa5147/OptMAVEn_Zika/OptMAVEn2.0/databases/MAPs/KCDR3/KCDR3_179.pdb'
p403
aa(lp404
S'KCDR3_18'
p405
aS'/gpfs/work/m/mfa5147/OptMAVEn_Zika/OptMAVEn2.0/databases/MAPs/KCDR3/KCDR3_18.pdb'
p406
aa(lp407
S'KCDR3_180'
p408
aS'/gpfs/work/m/mfa5147/OptMAVEn_Zika/OptMAVEn2.0/databases/MAPs/KCDR3/KCDR3_180.pdb'
p409
aa(lp410
S'KCDR3_181'
p411
aS'/gpfs/work/m/mfa5147/OptMAVEn_Zika/OptMAVEn2.0/databases/MAPs/KCDR3/KCDR3_181.pdb'
p412
aa(lp413
S'KCDR3_182'
p414
aS'/gpfs/work/m/mfa5147/OptMAVEn_Zika/OptMAVEn2.0/databases/MAPs/KCDR3/KCDR3_182.pdb'
p415
aa(lp416
S'KCDR3_183'
p417
aS'/gpfs/work/m/mfa5147/OptMAVEn_Zika/OptMAVEn2.0/databases/MAPs/KCDR3/KCDR3_183.pdb'
p418
aa(lp419
S'KCDR3_184'
p420
aS'/gpfs/work/m/mfa5147/OptMAVEn_Zika/OptMAVEn2.0/databases/MAPs/KCDR3/KCDR3_184.pdb'
p421
aa(lp422
S'KCDR3_185'
p423
aS'/gpfs/work/m/mfa5147/OptMAVEn_Zika/OptMAVEn2.0/databases/MAPs/KCDR3/KCDR3_185.pdb'
p424
aa(lp425
S'KCDR3_186'
p426
aS'/gpfs/work/m/mfa5147/OptMAVEn_Zika/OptMAVEn2.0/databases/MAPs/KCDR3/KCDR3_186.pdb'
p427
aa(lp428
S'KCDR3_187'
p429
aS'/gpfs/work/m/mfa5147/OptMAVEn_Zika/OptMAVEn2.0/databases/MAPs/KCDR3/KCDR3_187.pdb'
p430
aa(lp431
S'KCDR3_188'
p432
aS'/gpfs/work/m/mfa5147/OptMAVEn_Zika/OptMAVEn2.0/databases/MAPs/KCDR3/KCDR3_188.pdb'
p433
aa(lp434
S'KCDR3_189'
p435
aS'/gpfs/work/m/mfa5147/OptMAVEn_Zika/OptMAVEn2.0/databases/MAPs/KCDR3/KCDR3_189.pdb'
p436
aa(lp437
S'KCDR3_19'
p438
aS'/gpfs/work/m/mfa5147/OptMAVEn_Zika/OptMAVEn2.0/databases/MAPs/KCDR3/KCDR3_19.pdb'
p439
aa(lp440
S'KCDR3_190'
p441
aS'/gpfs/work/m/mfa5147/OptMAVEn_Zika/OptMAVEn2.0/databases/MAPs/KCDR3/KCDR3_190.pdb'
p442
aa(lp443
S'KCDR3_191'
p444
aS'/gpfs/work/m/mfa5147/OptMAVEn_Zika/OptMAVEn2.0/databases/MAPs/KCDR3/KCDR3_191.pdb'
p445
aa(lp446
S'KCDR3_192'
p447
aS'/gpfs/work/m/mfa5147/OptMAVEn_Zika/OptMAVEn2.0/databases/MAPs/KCDR3/KCDR3_192.pdb'
p448
aa(lp449
S'KCDR3_193'
p450
aS'/gpfs/work/m/mfa5147/OptMAVEn_Zika/OptMAVEn2.0/databases/MAPs/KCDR3/KCDR3_193.pdb'
p451
aa(lp452
S'KCDR3_194'
p453
aS'/gpfs/work/m/mfa5147/OptMAVEn_Zika/OptMAVEn2.0/databases/MAPs/KCDR3/KCDR3_194.pdb'
p454
aa(lp455
S'KCDR3_195'
p456
aS'/gpfs/work/m/mfa5147/OptMAVEn_Zika/OptMAVEn2.0/databases/MAPs/KCDR3/KCDR3_195.pdb'
p457
aa(lp458
S'KCDR3_196'
p459
aS'/gpfs/work/m/mfa5147/OptMAVEn_Zika/OptMAVEn2.0/databases/MAPs/KCDR3/KCDR3_196.pdb'
p460
aa(lp461
S'KCDR3_197'
p462
aS'/gpfs/work/m/mfa5147/OptMAVEn_Zika/OptMAVEn2.0/databases/MAPs/KCDR3/KCDR3_197.pdb'
p463
aa(lp464
S'KCDR3_198'
p465
aS'/gpfs/work/m/mfa5147/OptMAVEn_Zika/OptMAVEn2.0/databases/MAPs/KCDR3/KCDR3_198.pdb'
p466
aa(lp467
S'KCDR3_199'
p468
aS'/gpfs/work/m/mfa5147/OptMAVEn_Zika/OptMAVEn2.0/databases/MAPs/KCDR3/KCDR3_199.pdb'
p469
aa(lp470
S'KCDR3_2'
p471
aS'/gpfs/work/m/mfa5147/OptMAVEn_Zika/OptMAVEn2.0/databases/MAPs/KCDR3/KCDR3_2.pdb'
p472
aa(lp473
S'KCDR3_20'
p474
aS'/gpfs/work/m/mfa5147/OptMAVEn_Zika/OptMAVEn2.0/databases/MAPs/KCDR3/KCDR3_20.pdb'
p475
aa(lp476
S'KCDR3_21'
p477
aS'/gpfs/work/m/mfa5147/OptMAVEn_Zika/OptMAVEn2.0/databases/MAPs/KCDR3/KCDR3_21.pdb'
p478
aa(lp479
S'KCDR3_22'
p480
aS'/gpfs/work/m/mfa5147/OptMAVEn_Zika/OptMAVEn2.0/databases/MAPs/KCDR3/KCDR3_22.pdb'
p481
aa(lp482
S'KCDR3_23'
p483
aS'/gpfs/work/m/mfa5147/OptMAVEn_Zika/OptMAVEn2.0/databases/MAPs/KCDR3/KCDR3_23.pdb'
p484
aa(lp485
S'KCDR3_24'
p486
aS'/gpfs/work/m/mfa5147/OptMAVEn_Zika/OptMAVEn2.0/databases/MAPs/KCDR3/KCDR3_24.pdb'
p487
aa(lp488
S'KCDR3_25'
p489
aS'/gpfs/work/m/mfa5147/OptMAVEn_Zika/OptMAVEn2.0/databases/MAPs/KCDR3/KCDR3_25.pdb'
p490
aa(lp491
S'KCDR3_26'
p492
aS'/gpfs/work/m/mfa5147/OptMAVEn_Zika/OptMAVEn2.0/databases/MAPs/KCDR3/KCDR3_26.pdb'
p493
aa(lp494
S'KCDR3_27'
p495
aS'/gpfs/work/m/mfa5147/OptMAVEn_Zika/OptMAVEn2.0/databases/MAPs/KCDR3/KCDR3_27.pdb'
p496
aa(lp497
S'KCDR3_28'
p498
aS'/gpfs/work/m/mfa5147/OptMAVEn_Zika/OptMAVEn2.0/databases/MAPs/KCDR3/KCDR3_28.pdb'
p499
aa(lp500
S'KCDR3_29'
p501
aS'/gpfs/work/m/mfa5147/OptMAVEn_Zika/OptMAVEn2.0/databases/MAPs/KCDR3/KCDR3_29.pdb'
p502
aa(lp503
S'KCDR3_3'
p504
aS'/gpfs/work/m/mfa5147/OptMAVEn_Zika/OptMAVEn2.0/databases/MAPs/KCDR3/KCDR3_3.pdb'
p505
aa(lp506
S'KCDR3_30'
p507
aS'/gpfs/work/m/mfa5147/OptMAVEn_Zika/OptMAVEn2.0/databases/MAPs/KCDR3/KCDR3_30.pdb'
p508
aa(lp509
S'KCDR3_31'
p510
aS'/gpfs/work/m/mfa5147/OptMAVEn_Zika/OptMAVEn2.0/databases/MAPs/KCDR3/KCDR3_31.pdb'
p511
aa(lp512
S'KCDR3_32'
p513
aS'/gpfs/work/m/mfa5147/OptMAVEn_Zika/OptMAVEn2.0/databases/MAPs/KCDR3/KCDR3_32.pdb'
p514
aa(lp515
S'KCDR3_33'
p516
aS'/gpfs/work/m/mfa5147/OptMAVEn_Zika/OptMAVEn2.0/databases/MAPs/KCDR3/KCDR3_33.pdb'
p517
aa(lp518
S'KCDR3_34'
p519
aS'/gpfs/work/m/mfa5147/OptMAVEn_Zika/OptMAVEn2.0/databases/MAPs/KCDR3/KCDR3_34.pdb'
p520
aa(lp521
S'KCDR3_35'
p522
aS'/gpfs/work/m/mfa5147/OptMAVEn_Zika/OptMAVEn2.0/databases/MAPs/KCDR3/KCDR3_35.pdb'
p523
aa(lp524
S'KCDR3_36'
p525
aS'/gpfs/work/m/mfa5147/OptMAVEn_Zika/OptMAVEn2.0/databases/MAPs/KCDR3/KCDR3_36.pdb'
p526
aa(lp527
S'KCDR3_37'
p528
aS'/gpfs/work/m/mfa5147/OptMAVEn_Zika/OptMAVEn2.0/databases/MAPs/KCDR3/KCDR3_37.pdb'
p529
aa(lp530
S'KCDR3_38'
p531
aS'/gpfs/work/m/mfa5147/OptMAVEn_Zika/OptMAVEn2.0/databases/MAPs/KCDR3/KCDR3_38.pdb'
p532
aa(lp533
S'KCDR3_39'
p534
aS'/gpfs/work/m/mfa5147/OptMAVEn_Zika/OptMAVEn2.0/databases/MAPs/KCDR3/KCDR3_39.pdb'
p535
aa(lp536
S'KCDR3_4'
p537
aS'/gpfs/work/m/mfa5147/OptMAVEn_Zika/OptMAVEn2.0/databases/MAPs/KCDR3/KCDR3_4.pdb'
p538
aa(lp539
S'KCDR3_40'
p540
aS'/gpfs/work/m/mfa5147/OptMAVEn_Zika/OptMAVEn2.0/databases/MAPs/KCDR3/KCDR3_40.pdb'
p541
aa(lp542
S'KCDR3_41'
p543
aS'/gpfs/work/m/mfa5147/OptMAVEn_Zika/OptMAVEn2.0/databases/MAPs/KCDR3/KCDR3_41.pdb'
p544
aa(lp545
S'KCDR3_42'
p546
aS'/gpfs/work/m/mfa5147/OptMAVEn_Zika/OptMAVEn2.0/databases/MAPs/KCDR3/KCDR3_42.pdb'
p547
aa(lp548
S'KCDR3_43'
p549
aS'/gpfs/work/m/mfa5147/OptMAVEn_Zika/OptMAVEn2.0/databases/MAPs/KCDR3/KCDR3_43.pdb'
p550
aa(lp551
S'KCDR3_44'
p552
aS'/gpfs/work/m/mfa5147/OptMAVEn_Zika/OptMAVEn2.0/databases/MAPs/KCDR3/KCDR3_44.pdb'
p553
aa(lp554
S'KCDR3_45'
p555
aS'/gpfs/work/m/mfa5147/OptMAVEn_Zika/OptMAVEn2.0/databases/MAPs/KCDR3/KCDR3_45.pdb'
p556
aa(lp557
S'KCDR3_46'
p558
aS'/gpfs/work/m/mfa5147/OptMAVEn_Zika/OptMAVEn2.0/databases/MAPs/KCDR3/KCDR3_46.pdb'
p559
aa(lp560
S'KCDR3_47'
p561
aS'/gpfs/work/m/mfa5147/OptMAVEn_Zika/OptMAVEn2.0/databases/MAPs/KCDR3/KCDR3_47.pdb'
p562
aa(lp563
S'KCDR3_48'
p564
aS'/gpfs/work/m/mfa5147/OptMAVEn_Zika/OptMAVEn2.0/databases/MAPs/KCDR3/KCDR3_48.pdb'
p565
aa(lp566
S'KCDR3_49'
p567
aS'/gpfs/work/m/mfa5147/OptMAVEn_Zika/OptMAVEn2.0/databases/MAPs/KCDR3/KCDR3_49.pdb'
p568
aa(lp569
S'KCDR3_5'
p570
aS'/gpfs/work/m/mfa5147/OptMAVEn_Zika/OptMAVEn2.0/databases/MAPs/KCDR3/KCDR3_5.pdb'
p571
aa(lp572
S'KCDR3_50'
p573
aS'/gpfs/work/m/mfa5147/OptMAVEn_Zika/OptMAVEn2.0/databases/MAPs/KCDR3/KCDR3_50.pdb'
p574
aa(lp575
S'KCDR3_51'
p576
aS'/gpfs/work/m/mfa5147/OptMAVEn_Zika/OptMAVEn2.0/databases/MAPs/KCDR3/KCDR3_51.pdb'
p577
aa(lp578
S'KCDR3_52'
p579
aS'/gpfs/work/m/mfa5147/OptMAVEn_Zika/OptMAVEn2.0/databases/MAPs/KCDR3/KCDR3_52.pdb'
p580
aa(lp581
S'KCDR3_53'
p582
aS'/gpfs/work/m/mfa5147/OptMAVEn_Zika/OptMAVEn2.0/databases/MAPs/KCDR3/KCDR3_53.pdb'
p583
aa(lp584
S'KCDR3_54'
p585
aS'/gpfs/work/m/mfa5147/OptMAVEn_Zika/OptMAVEn2.0/databases/MAPs/KCDR3/KCDR3_54.pdb'
p586
aa(lp587
S'KCDR3_55'
p588
aS'/gpfs/work/m/mfa5147/OptMAVEn_Zika/OptMAVEn2.0/databases/MAPs/KCDR3/KCDR3_55.pdb'
p589
aa(lp590
S'KCDR3_56'
p591
aS'/gpfs/work/m/mfa5147/OptMAVEn_Zika/OptMAVEn2.0/databases/MAPs/KCDR3/KCDR3_56.pdb'
p592
aa(lp593
S'KCDR3_57'
p594
aS'/gpfs/work/m/mfa5147/OptMAVEn_Zika/OptMAVEn2.0/databases/MAPs/KCDR3/KCDR3_57.pdb'
p595
aa(lp596
S'KCDR3_58'
p597
aS'/gpfs/work/m/mfa5147/OptMAVEn_Zika/OptMAVEn2.0/databases/MAPs/KCDR3/KCDR3_58.pdb'
p598
aa(lp599
S'KCDR3_59'
p600
aS'/gpfs/work/m/mfa5147/OptMAVEn_Zika/OptMAVEn2.0/databases/MAPs/KCDR3/KCDR3_59.pdb'
p601
aa(lp602
S'KCDR3_6'
p603
aS'/gpfs/work/m/mfa5147/OptMAVEn_Zika/OptMAVEn2.0/databases/MAPs/KCDR3/KCDR3_6.pdb'
p604
aa(lp605
S'KCDR3_60'
p606
aS'/gpfs/work/m/mfa5147/OptMAVEn_Zika/OptMAVEn2.0/databases/MAPs/KCDR3/KCDR3_60.pdb'
p607
aa(lp608
S'KCDR3_61'
p609
aS'/gpfs/work/m/mfa5147/OptMAVEn_Zika/OptMAVEn2.0/databases/MAPs/KCDR3/KCDR3_61.pdb'
p610
aa(lp611
S'KCDR3_62'
p612
aS'/gpfs/work/m/mfa5147/OptMAVEn_Zika/OptMAVEn2.0/databases/MAPs/KCDR3/KCDR3_62.pdb'
p613
aa(lp614
S'KCDR3_63'
p615
aS'/gpfs/work/m/mfa5147/OptMAVEn_Zika/OptMAVEn2.0/databases/MAPs/KCDR3/KCDR3_63.pdb'
p616
aa(lp617
S'KCDR3_64'
p618
aS'/gpfs/work/m/mfa5147/OptMAVEn_Zika/OptMAVEn2.0/databases/MAPs/KCDR3/KCDR3_64.pdb'
p619
aa(lp620
S'KCDR3_65'
p621
aS'/gpfs/work/m/mfa5147/OptMAVEn_Zika/OptMAVEn2.0/databases/MAPs/KCDR3/KCDR3_65.pdb'
p622
aa(lp623
S'KCDR3_66'
p624
aS'/gpfs/work/m/mfa5147/OptMAVEn_Zika/OptMAVEn2.0/databases/MAPs/KCDR3/KCDR3_66.pdb'
p625
aa(lp626
S'KCDR3_67'
p627
aS'/gpfs/work/m/mfa5147/OptMAVEn_Zika/OptMAVEn2.0/databases/MAPs/KCDR3/KCDR3_67.pdb'
p628
aa(lp629
S'KCDR3_68'
p630
aS'/gpfs/work/m/mfa5147/OptMAVEn_Zika/OptMAVEn2.0/databases/MAPs/KCDR3/KCDR3_68.pdb'
p631
aa(lp632
S'KCDR3_69'
p633
aS'/gpfs/work/m/mfa5147/OptMAVEn_Zika/OptMAVEn2.0/databases/MAPs/KCDR3/KCDR3_69.pdb'
p634
aa(lp635
S'KCDR3_7'
p636
aS'/gpfs/work/m/mfa5147/OptMAVEn_Zika/OptMAVEn2.0/databases/MAPs/KCDR3/KCDR3_7.pdb'
p637
aa(lp638
S'KCDR3_70'
p639
aS'/gpfs/work/m/mfa5147/OptMAVEn_Zika/OptMAVEn2.0/databases/MAPs/KCDR3/KCDR3_70.pdb'
p640
aa(lp641
S'KCDR3_71'
p642
aS'/gpfs/work/m/mfa5147/OptMAVEn_Zika/OptMAVEn2.0/databases/MAPs/KCDR3/KCDR3_71.pdb'
p643
aa(lp644
S'KCDR3_72'
p645
aS'/gpfs/work/m/mfa5147/OptMAVEn_Zika/OptMAVEn2.0/databases/MAPs/KCDR3/KCDR3_72.pdb'
p646
aa(lp647
S'KCDR3_73'
p648
aS'/gpfs/work/m/mfa5147/OptMAVEn_Zika/OptMAVEn2.0/databases/MAPs/KCDR3/KCDR3_73.pdb'
p649
aa(lp650
S'KCDR3_74'
p651
aS'/gpfs/work/m/mfa5147/OptMAVEn_Zika/OptMAVEn2.0/databases/MAPs/KCDR3/KCDR3_74.pdb'
p652
aa(lp653
S'KCDR3_75'
p654
aS'/gpfs/work/m/mfa5147/OptMAVEn_Zika/OptMAVEn2.0/databases/MAPs/KCDR3/KCDR3_75.pdb'
p655
aa(lp656
S'KCDR3_76'
p657
aS'/gpfs/work/m/mfa5147/OptMAVEn_Zika/OptMAVEn2.0/databases/MAPs/KCDR3/KCDR3_76.pdb'
p658
aa(lp659
S'KCDR3_77'
p660
aS'/gpfs/work/m/mfa5147/OptMAVEn_Zika/OptMAVEn2.0/databases/MAPs/KCDR3/KCDR3_77.pdb'
p661
aa(lp662
S'KCDR3_78'
p663
aS'/gpfs/work/m/mfa5147/OptMAVEn_Zika/OptMAVEn2.0/databases/MAPs/KCDR3/KCDR3_78.pdb'
p664
aa(lp665
S'KCDR3_79'
p666
aS'/gpfs/work/m/mfa5147/OptMAVEn_Zika/OptMAVEn2.0/databases/MAPs/KCDR3/KCDR3_79.pdb'
p667
aa(lp668
S'KCDR3_8'
p669
aS'/gpfs/work/m/mfa5147/OptMAVEn_Zika/OptMAVEn2.0/databases/MAPs/KCDR3/KCDR3_8.pdb'
p670
aa(lp671
S'KCDR3_80'
p672
aS'/gpfs/work/m/mfa5147/OptMAVEn_Zika/OptMAVEn2.0/databases/MAPs/KCDR3/KCDR3_80.pdb'
p673
aa(lp674
S'KCDR3_81'
p675
aS'/gpfs/work/m/mfa5147/OptMAVEn_Zika/OptMAVEn2.0/databases/MAPs/KCDR3/KCDR3_81.pdb'
p676
aa(lp677
S'KCDR3_82'
p678
aS'/gpfs/work/m/mfa5147/OptMAVEn_Zika/OptMAVEn2.0/databases/MAPs/KCDR3/KCDR3_82.pdb'
p679
aa(lp680
S'KCDR3_83'
p681
aS'/gpfs/work/m/mfa5147/OptMAVEn_Zika/OptMAVEn2.0/databases/MAPs/KCDR3/KCDR3_83.pdb'
p682
aa(lp683
S'KCDR3_84'
p684
aS'/gpfs/work/m/mfa5147/OptMAVEn_Zika/OptMAVEn2.0/databases/MAPs/KCDR3/KCDR3_84.pdb'
p685
aa(lp686
S'KCDR3_85'
p687
aS'/gpfs/work/m/mfa5147/OptMAVEn_Zika/OptMAVEn2.0/databases/MAPs/KCDR3/KCDR3_85.pdb'
p688
aa(lp689
S'KCDR3_86'
p690
aS'/gpfs/work/m/mfa5147/OptMAVEn_Zika/OptMAVEn2.0/databases/MAPs/KCDR3/KCDR3_86.pdb'
p691
aa(lp692
S'KCDR3_87'
p693
aS'/gpfs/work/m/mfa5147/OptMAVEn_Zika/OptMAVEn2.0/databases/MAPs/KCDR3/KCDR3_87.pdb'
p694
aa(lp695
S'KCDR3_88'
p696
aS'/gpfs/work/m/mfa5147/OptMAVEn_Zika/OptMAVEn2.0/databases/MAPs/KCDR3/KCDR3_88.pdb'
p697
aa(lp698
S'KCDR3_89'
p699
aS'/gpfs/work/m/mfa5147/OptMAVEn_Zika/OptMAVEn2.0/databases/MAPs/KCDR3/KCDR3_89.pdb'
p700
aa(lp701
S'KCDR3_9'
p702
aS'/gpfs/work/m/mfa5147/OptMAVEn_Zika/OptMAVEn2.0/databases/MAPs/KCDR3/KCDR3_9.pdb'
p703
aa(lp704
S'KCDR3_90'
p705
aS'/gpfs/work/m/mfa5147/OptMAVEn_Zika/OptMAVEn2.0/databases/MAPs/KCDR3/KCDR3_90.pdb'
p706
aa(lp707
S'KCDR3_91'
p708
aS'/gpfs/work/m/mfa5147/OptMAVEn_Zika/OptMAVEn2.0/databases/MAPs/KCDR3/KCDR3_91.pdb'
p709
aa(lp710
S'KCDR3_92'
p711
aS'/gpfs/work/m/mfa5147/OptMAVEn_Zika/OptMAVEn2.0/databases/MAPs/KCDR3/KCDR3_92.pdb'
p712
aa(lp713
S'KCDR3_93'
p714
aS'/gpfs/work/m/mfa5147/OptMAVEn_Zika/OptMAVEn2.0/databases/MAPs/KCDR3/KCDR3_93.pdb'
p715
aa(lp716
S'KCDR3_94'
p717
aS'/gpfs/work/m/mfa5147/OptMAVEn_Zika/OptMAVEn2.0/databases/MAPs/KCDR3/KCDR3_94.pdb'
p718
aa(lp719
S'KCDR3_95'
p720
aS'/gpfs/work/m/mfa5147/OptMAVEn_Zika/OptMAVEn2.0/databases/MAPs/KCDR3/KCDR3_95.pdb'
p721
aa(lp722
S'KCDR3_96'
p723
aS'/gpfs/work/m/mfa5147/OptMAVEn_Zika/OptMAVEn2.0/databases/MAPs/KCDR3/KCDR3_96.pdb'
p724
aa(lp725
S'KCDR3_97'
p726
aS'/gpfs/work/m/mfa5147/OptMAVEn_Zika/OptMAVEn2.0/databases/MAPs/KCDR3/KCDR3_97.pdb'
p727
aa(lp728
S'KCDR3_98'
p729
aS'/gpfs/work/m/mfa5147/OptMAVEn_Zika/OptMAVEn2.0/databases/MAPs/KCDR3/KCDR3_98.pdb'
p730
aa(lp731
S'KCDR3_99'
p732
aS'/gpfs/work/m/mfa5147/OptMAVEn_Zika/OptMAVEn2.0/databases/MAPs/KCDR3/KCDR3_99.pdb'
p733
aatRp734
sS'HV'
p735
g3
((lp736
(lp737
S'HV_1'
p738
aS'/gpfs/work/m/mfa5147/OptMAVEn_Zika/OptMAVEn2.0/databases/MAPs/HV/HV_1.pdb'
p739
aa(lp740
S'HV_10'
p741
aS'/gpfs/work/m/mfa5147/OptMAVEn_Zika/OptMAVEn2.0/databases/MAPs/HV/HV_10.pdb'
p742
aa(lp743
S'HV_100'
p744
aS'/gpfs/work/m/mfa5147/OptMAVEn_Zika/OptMAVEn2.0/databases/MAPs/HV/HV_100.pdb'
p745
aa(lp746
S'HV_101'
p747
aS'/gpfs/work/m/mfa5147/OptMAVEn_Zika/OptMAVEn2.0/databases/MAPs/HV/HV_101.pdb'
p748
aa(lp749
S'HV_102'
p750
aS'/gpfs/work/m/mfa5147/OptMAVEn_Zika/OptMAVEn2.0/databases/MAPs/HV/HV_102.pdb'
p751
aa(lp752
S'HV_103'
p753
aS'/gpfs/work/m/mfa5147/OptMAVEn_Zika/OptMAVEn2.0/databases/MAPs/HV/HV_103.pdb'
p754
aa(lp755
S'HV_104'
p756
aS'/gpfs/work/m/mfa5147/OptMAVEn_Zika/OptMAVEn2.0/databases/MAPs/HV/HV_104.pdb'
p757
aa(lp758
S'HV_105'
p759
aS'/gpfs/work/m/mfa5147/OptMAVEn_Zika/OptMAVEn2.0/databases/MAPs/HV/HV_105.pdb'
p760
aa(lp761
S'HV_106'
p762
aS'/gpfs/work/m/mfa5147/OptMAVEn_Zika/OptMAVEn2.0/databases/MAPs/HV/HV_106.pdb'
p763
aa(lp764
S'HV_107'
p765
aS'/gpfs/work/m/mfa5147/OptMAVEn_Zika/OptMAVEn2.0/databases/MAPs/HV/HV_107.pdb'
p766
aa(lp767
S'HV_108'
p768
aS'/gpfs/work/m/mfa5147/OptMAVEn_Zika/OptMAVEn2.0/databases/MAPs/HV/HV_108.pdb'
p769
aa(lp770
S'HV_109'
p771
aS'/gpfs/work/m/mfa5147/OptMAVEn_Zika/OptMAVEn2.0/databases/MAPs/HV/HV_109.pdb'
p772
aa(lp773
S'HV_11'
p774
aS'/gpfs/work/m/mfa5147/OptMAVEn_Zika/OptMAVEn2.0/databases/MAPs/HV/HV_11.pdb'
p775
aa(lp776
S'HV_110'
p777
aS'/gpfs/work/m/mfa5147/OptMAVEn_Zika/OptMAVEn2.0/databases/MAPs/HV/HV_110.pdb'
p778
aa(lp779
S'HV_111'
p780
aS'/gpfs/work/m/mfa5147/OptMAVEn_Zika/OptMAVEn2.0/databases/MAPs/HV/HV_111.pdb'
p781
aa(lp782
S'HV_112'
p783
aS'/gpfs/work/m/mfa5147/OptMAVEn_Zika/OptMAVEn2.0/databases/MAPs/HV/HV_112.pdb'
p784
aa(lp785
S'HV_113'
p786
aS'/gpfs/work/m/mfa5147/OptMAVEn_Zika/OptMAVEn2.0/databases/MAPs/HV/HV_113.pdb'
p787
aa(lp788
S'HV_114'
p789
aS'/gpfs/work/m/mfa5147/OptMAVEn_Zika/OptMAVEn2.0/databases/MAPs/HV/HV_114.pdb'
p790
aa(lp791
S'HV_115'
p792
aS'/gpfs/work/m/mfa5147/OptMAVEn_Zika/OptMAVEn2.0/databases/MAPs/HV/HV_115.pdb'
p793
aa(lp794
S'HV_116'
p795
aS'/gpfs/work/m/mfa5147/OptMAVEn_Zika/OptMAVEn2.0/databases/MAPs/HV/HV_116.pdb'
p796
aa(lp797
S'HV_117'
p798
aS'/gpfs/work/m/mfa5147/OptMAVEn_Zika/OptMAVEn2.0/databases/MAPs/HV/HV_117.pdb'
p799
aa(lp800
S'HV_118'
p801
aS'/gpfs/work/m/mfa5147/OptMAVEn_Zika/OptMAVEn2.0/databases/MAPs/HV/HV_118.pdb'
p802
aa(lp803
S'HV_119'
p804
aS'/gpfs/work/m/mfa5147/OptMAVEn_Zika/OptMAVEn2.0/databases/MAPs/HV/HV_119.pdb'
p805
aa(lp806
S'HV_12'
p807
aS'/gpfs/work/m/mfa5147/OptMAVEn_Zika/OptMAVEn2.0/databases/MAPs/HV/HV_12.pdb'
p808
aa(lp809
S'HV_120'
p810
aS'/gpfs/work/m/mfa5147/OptMAVEn_Zika/OptMAVEn2.0/databases/MAPs/HV/HV_120.pdb'
p811
aa(lp812
S'HV_121'
p813
aS'/gpfs/work/m/mfa5147/OptMAVEn_Zika/OptMAVEn2.0/databases/MAPs/HV/HV_121.pdb'
p814
aa(lp815
S'HV_122'
p816
aS'/gpfs/work/m/mfa5147/OptMAVEn_Zika/OptMAVEn2.0/databases/MAPs/HV/HV_122.pdb'
p817
aa(lp818
S'HV_123'
p819
aS'/gpfs/work/m/mfa5147/OptMAVEn_Zika/OptMAVEn2.0/databases/MAPs/HV/HV_123.pdb'
p820
aa(lp821
S'HV_124'
p822
aS'/gpfs/work/m/mfa5147/OptMAVEn_Zika/OptMAVEn2.0/databases/MAPs/HV/HV_124.pdb'
p823
aa(lp824
S'HV_125'
p825
aS'/gpfs/work/m/mfa5147/OptMAVEn_Zika/OptMAVEn2.0/databases/MAPs/HV/HV_125.pdb'
p826
aa(lp827
S'HV_126'
p828
aS'/gpfs/work/m/mfa5147/OptMAVEn_Zika/OptMAVEn2.0/databases/MAPs/HV/HV_126.pdb'
p829
aa(lp830
S'HV_127'
p831
aS'/gpfs/work/m/mfa5147/OptMAVEn_Zika/OptMAVEn2.0/databases/MAPs/HV/HV_127.pdb'
p832
aa(lp833
S'HV_128'
p834
aS'/gpfs/work/m/mfa5147/OptMAVEn_Zika/OptMAVEn2.0/databases/MAPs/HV/HV_128.pdb'
p835
aa(lp836
S'HV_129'
p837
aS'/gpfs/work/m/mfa5147/OptMAVEn_Zika/OptMAVEn2.0/databases/MAPs/HV/HV_129.pdb'
p838
aa(lp839
S'HV_13'
p840
aS'/gpfs/work/m/mfa5147/OptMAVEn_Zika/OptMAVEn2.0/databases/MAPs/HV/HV_13.pdb'
p841
aa(lp842
S'HV_130'
p843
aS'/gpfs/work/m/mfa5147/OptMAVEn_Zika/OptMAVEn2.0/databases/MAPs/HV/HV_130.pdb'
p844
aa(lp845
S'HV_131'
p846
aS'/gpfs/work/m/mfa5147/OptMAVEn_Zika/OptMAVEn2.0/databases/MAPs/HV/HV_131.pdb'
p847
aa(lp848
S'HV_132'
p849
aS'/gpfs/work/m/mfa5147/OptMAVEn_Zika/OptMAVEn2.0/databases/MAPs/HV/HV_132.pdb'
p850
aa(lp851
S'HV_133'
p852
aS'/gpfs/work/m/mfa5147/OptMAVEn_Zika/OptMAVEn2.0/databases/MAPs/HV/HV_133.pdb'
p853
aa(lp854
S'HV_134'
p855
aS'/gpfs/work/m/mfa5147/OptMAVEn_Zika/OptMAVEn2.0/databases/MAPs/HV/HV_134.pdb'
p856
aa(lp857
S'HV_135'
p858
aS'/gpfs/work/m/mfa5147/OptMAVEn_Zika/OptMAVEn2.0/databases/MAPs/HV/HV_135.pdb'
p859
aa(lp860
S'HV_137'
p861
aS'/gpfs/work/m/mfa5147/OptMAVEn_Zika/OptMAVEn2.0/databases/MAPs/HV/HV_137.pdb'
p862
aa(lp863
S'HV_138'
p864
aS'/gpfs/work/m/mfa5147/OptMAVEn_Zika/OptMAVEn2.0/databases/MAPs/HV/HV_138.pdb'
p865
aa(lp866
S'HV_139'
p867
aS'/gpfs/work/m/mfa5147/OptMAVEn_Zika/OptMAVEn2.0/databases/MAPs/HV/HV_139.pdb'
p868
aa(lp869
S'HV_14'
p870
aS'/gpfs/work/m/mfa5147/OptMAVEn_Zika/OptMAVEn2.0/databases/MAPs/HV/HV_14.pdb'
p871
aa(lp872
S'HV_140'
p873
aS'/gpfs/work/m/mfa5147/OptMAVEn_Zika/OptMAVEn2.0/databases/MAPs/HV/HV_140.pdb'
p874
aa(lp875
S'HV_141'
p876
aS'/gpfs/work/m/mfa5147/OptMAVEn_Zika/OptMAVEn2.0/databases/MAPs/HV/HV_141.pdb'
p877
aa(lp878
S'HV_15'
p879
aS'/gpfs/work/m/mfa5147/OptMAVEn_Zika/OptMAVEn2.0/databases/MAPs/HV/HV_15.pdb'
p880
aa(lp881
S'HV_16'
p882
aS'/gpfs/work/m/mfa5147/OptMAVEn_Zika/OptMAVEn2.0/databases/MAPs/HV/HV_16.pdb'
p883
aa(lp884
S'HV_17'
p885
aS'/gpfs/work/m/mfa5147/OptMAVEn_Zika/OptMAVEn2.0/databases/MAPs/HV/HV_17.pdb'
p886
aa(lp887
S'HV_18'
p888
aS'/gpfs/work/m/mfa5147/OptMAVEn_Zika/OptMAVEn2.0/databases/MAPs/HV/HV_18.pdb'
p889
aa(lp890
S'HV_19'
p891
aS'/gpfs/work/m/mfa5147/OptMAVEn_Zika/OptMAVEn2.0/databases/MAPs/HV/HV_19.pdb'
p892
aa(lp893
S'HV_2'
p894
aS'/gpfs/work/m/mfa5147/OptMAVEn_Zika/OptMAVEn2.0/databases/MAPs/HV/HV_2.pdb'
p895
aa(lp896
S'HV_20'
p897
aS'/gpfs/work/m/mfa5147/OptMAVEn_Zika/OptMAVEn2.0/databases/MAPs/HV/HV_20.pdb'
p898
aa(lp899
S'HV_21'
p900
aS'/gpfs/work/m/mfa5147/OptMAVEn_Zika/OptMAVEn2.0/databases/MAPs/HV/HV_21.pdb'
p901
aa(lp902
S'HV_22'
p903
aS'/gpfs/work/m/mfa5147/OptMAVEn_Zika/OptMAVEn2.0/databases/MAPs/HV/HV_22.pdb'
p904
aa(lp905
S'HV_23'
p906
aS'/gpfs/work/m/mfa5147/OptMAVEn_Zika/OptMAVEn2.0/databases/MAPs/HV/HV_23.pdb'
p907
aa(lp908
S'HV_24'
p909
aS'/gpfs/work/m/mfa5147/OptMAVEn_Zika/OptMAVEn2.0/databases/MAPs/HV/HV_24.pdb'
p910
aa(lp911
S'HV_25'
p912
aS'/gpfs/work/m/mfa5147/OptMAVEn_Zika/OptMAVEn2.0/databases/MAPs/HV/HV_25.pdb'
p913
aa(lp914
S'HV_26'
p915
aS'/gpfs/work/m/mfa5147/OptMAVEn_Zika/OptMAVEn2.0/databases/MAPs/HV/HV_26.pdb'
p916
aa(lp917
S'HV_27'
p918
aS'/gpfs/work/m/mfa5147/OptMAVEn_Zika/OptMAVEn2.0/databases/MAPs/HV/HV_27.pdb'
p919
aa(lp920
S'HV_28'
p921
aS'/gpfs/work/m/mfa5147/OptMAVEn_Zika/OptMAVEn2.0/databases/MAPs/HV/HV_28.pdb'
p922
aa(lp923
S'HV_29'
p924
aS'/gpfs/work/m/mfa5147/OptMAVEn_Zika/OptMAVEn2.0/databases/MAPs/HV/HV_29.pdb'
p925
aa(lp926
S'HV_3'
p927
aS'/gpfs/work/m/mfa5147/OptMAVEn_Zika/OptMAVEn2.0/databases/MAPs/HV/HV_3.pdb'
p928
aa(lp929
S'HV_30'
p930
aS'/gpfs/work/m/mfa5147/OptMAVEn_Zika/OptMAVEn2.0/databases/MAPs/HV/HV_30.pdb'
p931
aa(lp932
S'HV_31'
p933
aS'/gpfs/work/m/mfa5147/OptMAVEn_Zika/OptMAVEn2.0/databases/MAPs/HV/HV_31.pdb'
p934
aa(lp935
S'HV_32'
p936
aS'/gpfs/work/m/mfa5147/OptMAVEn_Zika/OptMAVEn2.0/databases/MAPs/HV/HV_32.pdb'
p937
aa(lp938
S'HV_33'
p939
aS'/gpfs/work/m/mfa5147/OptMAVEn_Zika/OptMAVEn2.0/databases/MAPs/HV/HV_33.pdb'
p940
aa(lp941
S'HV_34'
p942
aS'/gpfs/work/m/mfa5147/OptMAVEn_Zika/OptMAVEn2.0/databases/MAPs/HV/HV_34.pdb'
p943
aa(lp944
S'HV_35'
p945
aS'/gpfs/work/m/mfa5147/OptMAVEn_Zika/OptMAVEn2.0/databases/MAPs/HV/HV_35.pdb'
p946
aa(lp947
S'HV_36'
p948
aS'/gpfs/work/m/mfa5147/OptMAVEn_Zika/OptMAVEn2.0/databases/MAPs/HV/HV_36.pdb'
p949
aa(lp950
S'HV_37'
p951
aS'/gpfs/work/m/mfa5147/OptMAVEn_Zika/OptMAVEn2.0/databases/MAPs/HV/HV_37.pdb'
p952
aa(lp953
S'HV_38'
p954
aS'/gpfs/work/m/mfa5147/OptMAVEn_Zika/OptMAVEn2.0/databases/MAPs/HV/HV_38.pdb'
p955
aa(lp956
S'HV_39'
p957
aS'/gpfs/work/m/mfa5147/OptMAVEn_Zika/OptMAVEn2.0/databases/MAPs/HV/HV_39.pdb'
p958
aa(lp959
S'HV_4'
p960
aS'/gpfs/work/m/mfa5147/OptMAVEn_Zika/OptMAVEn2.0/databases/MAPs/HV/HV_4.pdb'
p961
aa(lp962
S'HV_40'
p963
aS'/gpfs/work/m/mfa5147/OptMAVEn_Zika/OptMAVEn2.0/databases/MAPs/HV/HV_40.pdb'
p964
aa(lp965
S'HV_41'
p966
aS'/gpfs/work/m/mfa5147/OptMAVEn_Zika/OptMAVEn2.0/databases/MAPs/HV/HV_41.pdb'
p967
aa(lp968
S'HV_42'
p969
aS'/gpfs/work/m/mfa5147/OptMAVEn_Zika/OptMAVEn2.0/databases/MAPs/HV/HV_42.pdb'
p970
aa(lp971
S'HV_43'
p972
aS'/gpfs/work/m/mfa5147/OptMAVEn_Zika/OptMAVEn2.0/databases/MAPs/HV/HV_43.pdb'
p973
aa(lp974
S'HV_44'
p975
aS'/gpfs/work/m/mfa5147/OptMAVEn_Zika/OptMAVEn2.0/databases/MAPs/HV/HV_44.pdb'
p976
aa(lp977
S'HV_45'
p978
aS'/gpfs/work/m/mfa5147/OptMAVEn_Zika/OptMAVEn2.0/databases/MAPs/HV/HV_45.pdb'
p979
aa(lp980
S'HV_46'
p981
aS'/gpfs/work/m/mfa5147/OptMAVEn_Zika/OptMAVEn2.0/databases/MAPs/HV/HV_46.pdb'
p982
aa(lp983
S'HV_47'
p984
aS'/gpfs/work/m/mfa5147/OptMAVEn_Zika/OptMAVEn2.0/databases/MAPs/HV/HV_47.pdb'
p985
aa(lp986
S'HV_48'
p987
aS'/gpfs/work/m/mfa5147/OptMAVEn_Zika/OptMAVEn2.0/databases/MAPs/HV/HV_48.pdb'
p988
aa(lp989
S'HV_49'
p990
aS'/gpfs/work/m/mfa5147/OptMAVEn_Zika/OptMAVEn2.0/databases/MAPs/HV/HV_49.pdb'
p991
aa(lp992
S'HV_5'
p993
aS'/gpfs/work/m/mfa5147/OptMAVEn_Zika/OptMAVEn2.0/databases/MAPs/HV/HV_5.pdb'
p994
aa(lp995
S'HV_50'
p996
aS'/gpfs/work/m/mfa5147/OptMAVEn_Zika/OptMAVEn2.0/databases/MAPs/HV/HV_50.pdb'
p997
aa(lp998
S'HV_51'
p999
aS'/gpfs/work/m/mfa5147/OptMAVEn_Zika/OptMAVEn2.0/databases/MAPs/HV/HV_51.pdb'
p1000
aa(lp1001
S'HV_52'
p1002
aS'/gpfs/work/m/mfa5147/OptMAVEn_Zika/OptMAVEn2.0/databases/MAPs/HV/HV_52.pdb'
p1003
aa(lp1004
S'HV_53'
p1005
aS'/gpfs/work/m/mfa5147/OptMAVEn_Zika/OptMAVEn2.0/databases/MAPs/HV/HV_53.pdb'
p1006
aa(lp1007
S'HV_54'
p1008
aS'/gpfs/work/m/mfa5147/OptMAVEn_Zika/OptMAVEn2.0/databases/MAPs/HV/HV_54.pdb'
p1009
aa(lp1010
S'HV_55'
p1011
aS'/gpfs/work/m/mfa5147/OptMAVEn_Zika/OptMAVEn2.0/databases/MAPs/HV/HV_55.pdb'
p1012
aa(lp1013
S'HV_56'
p1014
aS'/gpfs/work/m/mfa5147/OptMAVEn_Zika/OptMAVEn2.0/databases/MAPs/HV/HV_56.pdb'
p1015
aa(lp1016
S'HV_57'
p1017
aS'/gpfs/work/m/mfa5147/OptMAVEn_Zika/OptMAVEn2.0/databases/MAPs/HV/HV_57.pdb'
p1018
aa(lp1019
S'HV_58'
p1020
aS'/gpfs/work/m/mfa5147/OptMAVEn_Zika/OptMAVEn2.0/databases/MAPs/HV/HV_58.pdb'
p1021
aa(lp1022
S'HV_59'
p1023
aS'/gpfs/work/m/mfa5147/OptMAVEn_Zika/OptMAVEn2.0/databases/MAPs/HV/HV_59.pdb'
p1024
aa(lp1025
S'HV_6'
p1026
aS'/gpfs/work/m/mfa5147/OptMAVEn_Zika/OptMAVEn2.0/databases/MAPs/HV/HV_6.pdb'
p1027
aa(lp1028
S'HV_60'
p1029
aS'/gpfs/work/m/mfa5147/OptMAVEn_Zika/OptMAVEn2.0/databases/MAPs/HV/HV_60.pdb'
p1030
aa(lp1031
S'HV_61'
p1032
aS'/gpfs/work/m/mfa5147/OptMAVEn_Zika/OptMAVEn2.0/databases/MAPs/HV/HV_61.pdb'
p1033
aa(lp1034
S'HV_62'
p1035
aS'/gpfs/work/m/mfa5147/OptMAVEn_Zika/OptMAVEn2.0/databases/MAPs/HV/HV_62.pdb'
p1036
aa(lp1037
S'HV_63'
p1038
aS'/gpfs/work/m/mfa5147/OptMAVEn_Zika/OptMAVEn2.0/databases/MAPs/HV/HV_63.pdb'
p1039
aa(lp1040
S'HV_64'
p1041
aS'/gpfs/work/m/mfa5147/OptMAVEn_Zika/OptMAVEn2.0/databases/MAPs/HV/HV_64.pdb'
p1042
aa(lp1043
S'HV_65'
p1044
aS'/gpfs/work/m/mfa5147/OptMAVEn_Zika/OptMAVEn2.0/databases/MAPs/HV/HV_65.pdb'
p1045
aa(lp1046
S'HV_66'
p1047
aS'/gpfs/work/m/mfa5147/OptMAVEn_Zika/OptMAVEn2.0/databases/MAPs/HV/HV_66.pdb'
p1048
aa(lp1049
S'HV_67'
p1050
aS'/gpfs/work/m/mfa5147/OptMAVEn_Zika/OptMAVEn2.0/databases/MAPs/HV/HV_67.pdb'
p1051
aa(lp1052
S'HV_68'
p1053
aS'/gpfs/work/m/mfa5147/OptMAVEn_Zika/OptMAVEn2.0/databases/MAPs/HV/HV_68.pdb'
p1054
aa(lp1055
S'HV_69'
p1056
aS'/gpfs/work/m/mfa5147/OptMAVEn_Zika/OptMAVEn2.0/databases/MAPs/HV/HV_69.pdb'
p1057
aa(lp1058
S'HV_7'
p1059
aS'/gpfs/work/m/mfa5147/OptMAVEn_Zika/OptMAVEn2.0/databases/MAPs/HV/HV_7.pdb'
p1060
aa(lp1061
S'HV_70'
p1062
aS'/gpfs/work/m/mfa5147/OptMAVEn_Zika/OptMAVEn2.0/databases/MAPs/HV/HV_70.pdb'
p1063
aa(lp1064
S'HV_71'
p1065
aS'/gpfs/work/m/mfa5147/OptMAVEn_Zika/OptMAVEn2.0/databases/MAPs/HV/HV_71.pdb'
p1066
aa(lp1067
S'HV_72'
p1068
aS'/gpfs/work/m/mfa5147/OptMAVEn_Zika/OptMAVEn2.0/databases/MAPs/HV/HV_72.pdb'
p1069
aa(lp1070
S'HV_73'
p1071
aS'/gpfs/work/m/mfa5147/OptMAVEn_Zika/OptMAVEn2.0/databases/MAPs/HV/HV_73.pdb'
p1072
aa(lp1073
S'HV_74'
p1074
aS'/gpfs/work/m/mfa5147/OptMAVEn_Zika/OptMAVEn2.0/databases/MAPs/HV/HV_74.pdb'
p1075
aa(lp1076
S'HV_75'
p1077
aS'/gpfs/work/m/mfa5147/OptMAVEn_Zika/OptMAVEn2.0/databases/MAPs/HV/HV_75.pdb'
p1078
aa(lp1079
S'HV_76'
p1080
aS'/gpfs/work/m/mfa5147/OptMAVEn_Zika/OptMAVEn2.0/databases/MAPs/HV/HV_76.pdb'
p1081
aa(lp1082
S'HV_77'
p1083
aS'/gpfs/work/m/mfa5147/OptMAVEn_Zika/OptMAVEn2.0/databases/MAPs/HV/HV_77.pdb'
p1084
aa(lp1085
S'HV_78'
p1086
aS'/gpfs/work/m/mfa5147/OptMAVEn_Zika/OptMAVEn2.0/databases/MAPs/HV/HV_78.pdb'
p1087
aa(lp1088
S'HV_79'
p1089
aS'/gpfs/work/m/mfa5147/OptMAVEn_Zika/OptMAVEn2.0/databases/MAPs/HV/HV_79.pdb'
p1090
aa(lp1091
S'HV_8'
p1092
aS'/gpfs/work/m/mfa5147/OptMAVEn_Zika/OptMAVEn2.0/databases/MAPs/HV/HV_8.pdb'
p1093
aa(lp1094
S'HV_80'
p1095
aS'/gpfs/work/m/mfa5147/OptMAVEn_Zika/OptMAVEn2.0/databases/MAPs/HV/HV_80.pdb'
p1096
aa(lp1097
S'HV_81'
p1098
aS'/gpfs/work/m/mfa5147/OptMAVEn_Zika/OptMAVEn2.0/databases/MAPs/HV/HV_81.pdb'
p1099
aa(lp1100
S'HV_82'
p1101
aS'/gpfs/work/m/mfa5147/OptMAVEn_Zika/OptMAVEn2.0/databases/MAPs/HV/HV_82.pdb'
p1102
aa(lp1103
S'HV_83'
p1104
aS'/gpfs/work/m/mfa5147/OptMAVEn_Zika/OptMAVEn2.0/databases/MAPs/HV/HV_83.pdb'
p1105
aa(lp1106
S'HV_84'
p1107
aS'/gpfs/work/m/mfa5147/OptMAVEn_Zika/OptMAVEn2.0/databases/MAPs/HV/HV_84.pdb'
p1108
aa(lp1109
S'HV_85'
p1110
aS'/gpfs/work/m/mfa5147/OptMAVEn_Zika/OptMAVEn2.0/databases/MAPs/HV/HV_85.pdb'
p1111
aa(lp1112
S'HV_86'
p1113
aS'/gpfs/work/m/mfa5147/OptMAVEn_Zika/OptMAVEn2.0/databases/MAPs/HV/HV_86.pdb'
p1114
aa(lp1115
S'HV_87'
p1116
aS'/gpfs/work/m/mfa5147/OptMAVEn_Zika/OptMAVEn2.0/databases/MAPs/HV/HV_87.pdb'
p1117
aa(lp1118
S'HV_88'
p1119
aS'/gpfs/work/m/mfa5147/OptMAVEn_Zika/OptMAVEn2.0/databases/MAPs/HV/HV_88.pdb'
p1120
aa(lp1121
S'HV_89'
p1122
aS'/gpfs/work/m/mfa5147/OptMAVEn_Zika/OptMAVEn2.0/databases/MAPs/HV/HV_89.pdb'
p1123
aa(lp1124
S'HV_9'
p1125
aS'/gpfs/work/m/mfa5147/OptMAVEn_Zika/OptMAVEn2.0/databases/MAPs/HV/HV_9.pdb'
p1126
aa(lp1127
S'HV_90'
p1128
aS'/gpfs/work/m/mfa5147/OptMAVEn_Zika/OptMAVEn2.0/databases/MAPs/HV/HV_90.pdb'
p1129
aa(lp1130
S'HV_91'
p1131
aS'/gpfs/work/m/mfa5147/OptMAVEn_Zika/OptMAVEn2.0/databases/MAPs/HV/HV_91.pdb'
p1132
aa(lp1133
S'HV_92'
p1134
aS'/gpfs/work/m/mfa5147/OptMAVEn_Zika/OptMAVEn2.0/databases/MAPs/HV/HV_92.pdb'
p1135
aa(lp1136
S'HV_93'
p1137
aS'/gpfs/work/m/mfa5147/OptMAVEn_Zika/OptMAVEn2.0/databases/MAPs/HV/HV_93.pdb'
p1138
aa(lp1139
S'HV_94'
p1140
aS'/gpfs/work/m/mfa5147/OptMAVEn_Zika/OptMAVEn2.0/databases/MAPs/HV/HV_94.pdb'
p1141
aa(lp1142
S'HV_95'
p1143
aS'/gpfs/work/m/mfa5147/OptMAVEn_Zika/OptMAVEn2.0/databases/MAPs/HV/HV_95.pdb'
p1144
aa(lp1145
S'HV_96'
p1146
aS'/gpfs/work/m/mfa5147/OptMAVEn_Zika/OptMAVEn2.0/databases/MAPs/HV/HV_96.pdb'
p1147
aa(lp1148
S'HV_97'
p1149
aS'/gpfs/work/m/mfa5147/OptMAVEn_Zika/OptMAVEn2.0/databases/MAPs/HV/HV_97.pdb'
p1150
aa(lp1151
S'HV_98'
p1152
aS'/gpfs/work/m/mfa5147/OptMAVEn_Zika/OptMAVEn2.0/databases/MAPs/HV/HV_98.pdb'
p1153
aa(lp1154
S'HV_99'
p1155
aS'/gpfs/work/m/mfa5147/OptMAVEn_Zika/OptMAVEn2.0/databases/MAPs/HV/HV_99.pdb'
p1156
aatRp1157
sS'HJ'
p1158
g3
((lp1159
(lp1160
S'HJ_1'
p1161
aS'/gpfs/work/m/mfa5147/OptMAVEn_Zika/OptMAVEn2.0/databases/MAPs/HJ/HJ_1.pdb'
p1162
aa(lp1163
S'HJ_2'
p1164
aS'/gpfs/work/m/mfa5147/OptMAVEn_Zika/OptMAVEn2.0/databases/MAPs/HJ/HJ_2.pdb'
p1165
aa(lp1166
S'HJ_3'
p1167
aS'/gpfs/work/m/mfa5147/OptMAVEn_Zika/OptMAVEn2.0/databases/MAPs/HJ/HJ_3.pdb'
p1168
aa(lp1169
S'HJ_4'
p1170
aS'/gpfs/work/m/mfa5147/OptMAVEn_Zika/OptMAVEn2.0/databases/MAPs/HJ/HJ_4.pdb'
p1171
aa(lp1172
S'HJ_5'
p1173
aS'/gpfs/work/m/mfa5147/OptMAVEn_Zika/OptMAVEn2.0/databases/MAPs/HJ/HJ_5.pdb'
p1174
aatRp1175
sS'HCDR3'
p1176
g3
((lp1177
(lp1178
S'HCDR3_1'
p1179
aS'/gpfs/work/m/mfa5147/OptMAVEn_Zika/OptMAVEn2.0/databases/MAPs/HCDR3/HCDR3_1.pdb'
p1180
aa(lp1181
S'HCDR3_101'
p1182
aS'/gpfs/work/m/mfa5147/OptMAVEn_Zika/OptMAVEn2.0/databases/MAPs/HCDR3/HCDR3_101.pdb'
p1183
aa(lp1184
S'HCDR3_108'
p1185
aS'/gpfs/work/m/mfa5147/OptMAVEn_Zika/OptMAVEn2.0/databases/MAPs/HCDR3/HCDR3_108.pdb'
p1186
aa(lp1187
S'HCDR3_11'
p1188
aS'/gpfs/work/m/mfa5147/OptMAVEn_Zika/OptMAVEn2.0/databases/MAPs/HCDR3/HCDR3_11.pdb'
p1189
aa(lp1190
S'HCDR3_112'
p1191
aS'/gpfs/work/m/mfa5147/OptMAVEn_Zika/OptMAVEn2.0/databases/MAPs/HCDR3/HCDR3_112.pdb'
p1192
aa(lp1193
S'HCDR3_115'
p1194
aS'/gpfs/work/m/mfa5147/OptMAVEn_Zika/OptMAVEn2.0/databases/MAPs/HCDR3/HCDR3_115.pdb'
p1195
aa(lp1196
S'HCDR3_119'
p1197
aS'/gpfs/work/m/mfa5147/OptMAVEn_Zika/OptMAVEn2.0/databases/MAPs/HCDR3/HCDR3_119.pdb'
p1198
aa(lp1199
S'HCDR3_121'
p1200
aS'/gpfs/work/m/mfa5147/OptMAVEn_Zika/OptMAVEn2.0/databases/MAPs/HCDR3/HCDR3_121.pdb'
p1201
aa(lp1202
S'HCDR3_123'
p1203
aS'/gpfs/work/m/mfa5147/OptMAVEn_Zika/OptMAVEn2.0/databases/MAPs/HCDR3/HCDR3_123.pdb'
p1204
aa(lp1205
S'HCDR3_124'
p1206
aS'/gpfs/work/m/mfa5147/OptMAVEn_Zika/OptMAVEn2.0/databases/MAPs/HCDR3/HCDR3_124.pdb'
p1207
aa(lp1208
S'HCDR3_96'
p1209
aS'/gpfs/work/m/mfa5147/OptMAVEn_Zika/OptMAVEn2.0/databases/MAPs/HCDR3/HCDR3_96.pdb'
p1210
aa(lp1211
S'HCDR3_126'
p1212
aS'/gpfs/work/m/mfa5147/OptMAVEn_Zika/OptMAVEn2.0/databases/MAPs/HCDR3/HCDR3_126.pdb'
p1213
aa(lp1214
S'HCDR3_95'
p1215
aS'/gpfs/work/m/mfa5147/OptMAVEn_Zika/OptMAVEn2.0/databases/MAPs/HCDR3/HCDR3_95.pdb'
p1216
aa(lp1217
S'HCDR3_128'
p1218
aS'/gpfs/work/m/mfa5147/OptMAVEn_Zika/OptMAVEn2.0/databases/MAPs/HCDR3/HCDR3_128.pdb'
p1219
aa(lp1220
S'HCDR3_94'
p1221
aS'/gpfs/work/m/mfa5147/OptMAVEn_Zika/OptMAVEn2.0/databases/MAPs/HCDR3/HCDR3_94.pdb'
p1222
aa(lp1223
S'HCDR3_13'
p1224
aS'/gpfs/work/m/mfa5147/OptMAVEn_Zika/OptMAVEn2.0/databases/MAPs/HCDR3/HCDR3_13.pdb'
p1225
aa(lp1226
S'HCDR3_130'
p1227
aS'/gpfs/work/m/mfa5147/OptMAVEn_Zika/OptMAVEn2.0/databases/MAPs/HCDR3/HCDR3_130.pdb'
p1228
aa(lp1229
S'HCDR3_131'
p1230
aS'/gpfs/work/m/mfa5147/OptMAVEn_Zika/OptMAVEn2.0/databases/MAPs/HCDR3/HCDR3_131.pdb'
p1231
aa(lp1232
S'HCDR3_132'
p1233
aS'/gpfs/work/m/mfa5147/OptMAVEn_Zika/OptMAVEn2.0/databases/MAPs/HCDR3/HCDR3_132.pdb'
p1234
aa(lp1235
S'HCDR3_133'
p1236
aS'/gpfs/work/m/mfa5147/OptMAVEn_Zika/OptMAVEn2.0/databases/MAPs/HCDR3/HCDR3_133.pdb'
p1237
aa(lp1238
S'HCDR3_134'
p1239
aS'/gpfs/work/m/mfa5147/OptMAVEn_Zika/OptMAVEn2.0/databases/MAPs/HCDR3/HCDR3_134.pdb'
p1240
aa(lp1241
S'HCDR3_135'
p1242
aS'/gpfs/work/m/mfa5147/OptMAVEn_Zika/OptMAVEn2.0/databases/MAPs/HCDR3/HCDR3_135.pdb'
p1243
aa(lp1244
S'HCDR3_91'
p1245
aS'/gpfs/work/m/mfa5147/OptMAVEn_Zika/OptMAVEn2.0/databases/MAPs/HCDR3/HCDR3_91.pdb'
p1246
aa(lp1247
S'HCDR3_93'
p1248
aS'/gpfs/work/m/mfa5147/OptMAVEn_Zika/OptMAVEn2.0/databases/MAPs/HCDR3/HCDR3_93.pdb'
p1249
aa(lp1250
S'HCDR3_138'
p1251
aS'/gpfs/work/m/mfa5147/OptMAVEn_Zika/OptMAVEn2.0/databases/MAPs/HCDR3/HCDR3_138.pdb'
p1252
aa(lp1253
S'HCDR3_90'
p1254
aS'/gpfs/work/m/mfa5147/OptMAVEn_Zika/OptMAVEn2.0/databases/MAPs/HCDR3/HCDR3_90.pdb'
p1255
aa(lp1256
S'HCDR3_14'
p1257
aS'/gpfs/work/m/mfa5147/OptMAVEn_Zika/OptMAVEn2.0/databases/MAPs/HCDR3/HCDR3_14.pdb'
p1258
aa(lp1259
S'HCDR3_88'
p1260
aS'/gpfs/work/m/mfa5147/OptMAVEn_Zika/OptMAVEn2.0/databases/MAPs/HCDR3/HCDR3_88.pdb'
p1261
aa(lp1262
S'HCDR3_9'
p1263
aS'/gpfs/work/m/mfa5147/OptMAVEn_Zika/OptMAVEn2.0/databases/MAPs/HCDR3/HCDR3_9.pdb'
p1264
aa(lp1265
S'HCDR3_142'
p1266
aS'/gpfs/work/m/mfa5147/OptMAVEn_Zika/OptMAVEn2.0/databases/MAPs/HCDR3/HCDR3_142.pdb'
p1267
aa(lp1268
S'HCDR3_84'
p1269
aS'/gpfs/work/m/mfa5147/OptMAVEn_Zika/OptMAVEn2.0/databases/MAPs/HCDR3/HCDR3_84.pdb'
p1270
aa(lp1271
S'HCDR3_87'
p1272
aS'/gpfs/work/m/mfa5147/OptMAVEn_Zika/OptMAVEn2.0/databases/MAPs/HCDR3/HCDR3_87.pdb'
p1273
aa(lp1274
S'HCDR3_145'
p1275
aS'/gpfs/work/m/mfa5147/OptMAVEn_Zika/OptMAVEn2.0/databases/MAPs/HCDR3/HCDR3_145.pdb'
p1276
aa(lp1277
S'HCDR3_146'
p1278
aS'/gpfs/work/m/mfa5147/OptMAVEn_Zika/OptMAVEn2.0/databases/MAPs/HCDR3/HCDR3_146.pdb'
p1279
aa(lp1280
S'HCDR3_147'
p1281
aS'/gpfs/work/m/mfa5147/OptMAVEn_Zika/OptMAVEn2.0/databases/MAPs/HCDR3/HCDR3_147.pdb'
p1282
aa(lp1283
S'HCDR3_83'
p1284
aS'/gpfs/work/m/mfa5147/OptMAVEn_Zika/OptMAVEn2.0/databases/MAPs/HCDR3/HCDR3_83.pdb'
p1285
aa(lp1286
S'HCDR3_149'
p1287
aS'/gpfs/work/m/mfa5147/OptMAVEn_Zika/OptMAVEn2.0/databases/MAPs/HCDR3/HCDR3_149.pdb'
p1288
aa(lp1289
S'HCDR3_72'
p1290
aS'/gpfs/work/m/mfa5147/OptMAVEn_Zika/OptMAVEn2.0/databases/MAPs/HCDR3/HCDR3_72.pdb'
p1291
aa(lp1292
S'HCDR3_74'
p1293
aS'/gpfs/work/m/mfa5147/OptMAVEn_Zika/OptMAVEn2.0/databases/MAPs/HCDR3/HCDR3_74.pdb'
p1294
aa(lp1295
S'HCDR3_75'
p1296
aS'/gpfs/work/m/mfa5147/OptMAVEn_Zika/OptMAVEn2.0/databases/MAPs/HCDR3/HCDR3_75.pdb'
p1297
aa(lp1298
S'HCDR3_81'
p1299
aS'/gpfs/work/m/mfa5147/OptMAVEn_Zika/OptMAVEn2.0/databases/MAPs/HCDR3/HCDR3_81.pdb'
p1300
aa(lp1301
S'HCDR3_153'
p1302
aS'/gpfs/work/m/mfa5147/OptMAVEn_Zika/OptMAVEn2.0/databases/MAPs/HCDR3/HCDR3_153.pdb'
p1303
aa(lp1304
S'HCDR3_54'
p1305
aS'/gpfs/work/m/mfa5147/OptMAVEn_Zika/OptMAVEn2.0/databases/MAPs/HCDR3/HCDR3_54.pdb'
p1306
aa(lp1307
S'HCDR3_56'
p1308
aS'/gpfs/work/m/mfa5147/OptMAVEn_Zika/OptMAVEn2.0/databases/MAPs/HCDR3/HCDR3_56.pdb'
p1309
aa(lp1310
S'HCDR3_57'
p1311
aS'/gpfs/work/m/mfa5147/OptMAVEn_Zika/OptMAVEn2.0/databases/MAPs/HCDR3/HCDR3_57.pdb'
p1312
aa(lp1313
S'HCDR3_62'
p1314
aS'/gpfs/work/m/mfa5147/OptMAVEn_Zika/OptMAVEn2.0/databases/MAPs/HCDR3/HCDR3_62.pdb'
p1315
aa(lp1316
S'HCDR3_63'
p1317
aS'/gpfs/work/m/mfa5147/OptMAVEn_Zika/OptMAVEn2.0/databases/MAPs/HCDR3/HCDR3_63.pdb'
p1318
aa(lp1319
S'HCDR3_69'
p1320
aS'/gpfs/work/m/mfa5147/OptMAVEn_Zika/OptMAVEn2.0/databases/MAPs/HCDR3/HCDR3_69.pdb'
p1321
aa(lp1322
S'HCDR3_7'
p1323
aS'/gpfs/work/m/mfa5147/OptMAVEn_Zika/OptMAVEn2.0/databases/MAPs/HCDR3/HCDR3_7.pdb'
p1324
aa(lp1325
S'HCDR3_160'
p1326
aS'/gpfs/work/m/mfa5147/OptMAVEn_Zika/OptMAVEn2.0/databases/MAPs/HCDR3/HCDR3_160.pdb'
p1327
aa(lp1328
S'HCDR3_53'
p1329
aS'/gpfs/work/m/mfa5147/OptMAVEn_Zika/OptMAVEn2.0/databases/MAPs/HCDR3/HCDR3_53.pdb'
p1330
aa(lp1331
S'HCDR3_162'
p1332
aS'/gpfs/work/m/mfa5147/OptMAVEn_Zika/OptMAVEn2.0/databases/MAPs/HCDR3/HCDR3_162.pdb'
p1333
aa(lp1334
S'HCDR3_52'
p1335
aS'/gpfs/work/m/mfa5147/OptMAVEn_Zika/OptMAVEn2.0/databases/MAPs/HCDR3/HCDR3_52.pdb'
p1336
aa(lp1337
S'HCDR3_164'
p1338
aS'/gpfs/work/m/mfa5147/OptMAVEn_Zika/OptMAVEn2.0/databases/MAPs/HCDR3/HCDR3_164.pdb'
p1339
aa(lp1340
S'HCDR3_51'
p1341
aS'/gpfs/work/m/mfa5147/OptMAVEn_Zika/OptMAVEn2.0/databases/MAPs/HCDR3/HCDR3_51.pdb'
p1342
aa(lp1343
S'HCDR3_166'
p1344
aS'/gpfs/work/m/mfa5147/OptMAVEn_Zika/OptMAVEn2.0/databases/MAPs/HCDR3/HCDR3_166.pdb'
p1345
aa(lp1346
S'HCDR3_167'
p1347
aS'/gpfs/work/m/mfa5147/OptMAVEn_Zika/OptMAVEn2.0/databases/MAPs/HCDR3/HCDR3_167.pdb'
p1348
aa(lp1349
S'HCDR3_168'
p1350
aS'/gpfs/work/m/mfa5147/OptMAVEn_Zika/OptMAVEn2.0/databases/MAPs/HCDR3/HCDR3_168.pdb'
p1351
aa(lp1352
S'HCDR3_169'
p1353
aS'/gpfs/work/m/mfa5147/OptMAVEn_Zika/OptMAVEn2.0/databases/MAPs/HCDR3/HCDR3_169.pdb'
p1354
aa(lp1355
S'HCDR3_48'
p1356
aS'/gpfs/work/m/mfa5147/OptMAVEn_Zika/OptMAVEn2.0/databases/MAPs/HCDR3/HCDR3_48.pdb'
p1357
aa(lp1358
S'HCDR3_50'
p1359
aS'/gpfs/work/m/mfa5147/OptMAVEn_Zika/OptMAVEn2.0/databases/MAPs/HCDR3/HCDR3_50.pdb'
p1360
aa(lp1361
S'HCDR3_171'
p1362
aS'/gpfs/work/m/mfa5147/OptMAVEn_Zika/OptMAVEn2.0/databases/MAPs/HCDR3/HCDR3_171.pdb'
p1363
aa(lp1364
S'HCDR3_46'
p1365
aS'/gpfs/work/m/mfa5147/OptMAVEn_Zika/OptMAVEn2.0/databases/MAPs/HCDR3/HCDR3_46.pdb'
p1366
aa(lp1367
S'HCDR3_47'
p1368
aS'/gpfs/work/m/mfa5147/OptMAVEn_Zika/OptMAVEn2.0/databases/MAPs/HCDR3/HCDR3_47.pdb'
p1369
aa(lp1370
S'HCDR3_174'
p1371
aS'/gpfs/work/m/mfa5147/OptMAVEn_Zika/OptMAVEn2.0/databases/MAPs/HCDR3/HCDR3_174.pdb'
p1372
aa(lp1373
S'HCDR3_175'
p1374
aS'/gpfs/work/m/mfa5147/OptMAVEn_Zika/OptMAVEn2.0/databases/MAPs/HCDR3/HCDR3_175.pdb'
p1375
aa(lp1376
S'HCDR3_426'
p1377
aS'/gpfs/work/m/mfa5147/OptMAVEn_Zika/OptMAVEn2.0/databases/MAPs/HCDR3/HCDR3_426.pdb'
p1378
aa(lp1379
S'HCDR3_427'
p1380
aS'/gpfs/work/m/mfa5147/OptMAVEn_Zika/OptMAVEn2.0/databases/MAPs/HCDR3/HCDR3_427.pdb'
p1381
aa(lp1382
S'HCDR3_428'
p1383
aS'/gpfs/work/m/mfa5147/OptMAVEn_Zika/OptMAVEn2.0/databases/MAPs/HCDR3/HCDR3_428.pdb'
p1384
aa(lp1385
S'HCDR3_44'
p1386
aS'/gpfs/work/m/mfa5147/OptMAVEn_Zika/OptMAVEn2.0/databases/MAPs/HCDR3/HCDR3_44.pdb'
p1387
aa(lp1388
S'HCDR3_18'
p1389
aS'/gpfs/work/m/mfa5147/OptMAVEn_Zika/OptMAVEn2.0/databases/MAPs/HCDR3/HCDR3_18.pdb'
p1390
aa(lp1391
S'HCDR3_180'
p1392
aS'/gpfs/work/m/mfa5147/OptMAVEn_Zika/OptMAVEn2.0/databases/MAPs/HCDR3/HCDR3_180.pdb'
p1393
aa(lp1394
S'HCDR3_181'
p1395
aS'/gpfs/work/m/mfa5147/OptMAVEn_Zika/OptMAVEn2.0/databases/MAPs/HCDR3/HCDR3_181.pdb'
p1396
aa(lp1397
S'HCDR3_182'
p1398
aS'/gpfs/work/m/mfa5147/OptMAVEn_Zika/OptMAVEn2.0/databases/MAPs/HCDR3/HCDR3_182.pdb'
p1399
aa(lp1400
S'HCDR3_183'
p1401
aS'/gpfs/work/m/mfa5147/OptMAVEn_Zika/OptMAVEn2.0/databases/MAPs/HCDR3/HCDR3_183.pdb'
p1402
aa(lp1403
S'HCDR3_184'
p1404
aS'/gpfs/work/m/mfa5147/OptMAVEn_Zika/OptMAVEn2.0/databases/MAPs/HCDR3/HCDR3_184.pdb'
p1405
aa(lp1406
S'HCDR3_423'
p1407
aS'/gpfs/work/m/mfa5147/OptMAVEn_Zika/OptMAVEn2.0/databases/MAPs/HCDR3/HCDR3_423.pdb'
p1408
aa(lp1409
S'HCDR3_424'
p1410
aS'/gpfs/work/m/mfa5147/OptMAVEn_Zika/OptMAVEn2.0/databases/MAPs/HCDR3/HCDR3_424.pdb'
p1411
aa(lp1412
S'HCDR3_187'
p1413
aS'/gpfs/work/m/mfa5147/OptMAVEn_Zika/OptMAVEn2.0/databases/MAPs/HCDR3/HCDR3_187.pdb'
p1414
aa(lp1415
S'HCDR3_188'
p1416
aS'/gpfs/work/m/mfa5147/OptMAVEn_Zika/OptMAVEn2.0/databases/MAPs/HCDR3/HCDR3_188.pdb'
p1417
aa(lp1418
S'HCDR3_189'
p1419
aS'/gpfs/work/m/mfa5147/OptMAVEn_Zika/OptMAVEn2.0/databases/MAPs/HCDR3/HCDR3_189.pdb'
p1420
aa(lp1421
S'HCDR3_19'
p1422
aS'/gpfs/work/m/mfa5147/OptMAVEn_Zika/OptMAVEn2.0/databases/MAPs/HCDR3/HCDR3_19.pdb'
p1423
aa(lp1424
S'HCDR3_42'
p1425
aS'/gpfs/work/m/mfa5147/OptMAVEn_Zika/OptMAVEn2.0/databases/MAPs/HCDR3/HCDR3_42.pdb'
p1426
aa(lp1427
S'HCDR3_421'
p1428
aS'/gpfs/work/m/mfa5147/OptMAVEn_Zika/OptMAVEn2.0/databases/MAPs/HCDR3/HCDR3_421.pdb'
p1429
aa(lp1430
S'HCDR3_192'
p1431
aS'/gpfs/work/m/mfa5147/OptMAVEn_Zika/OptMAVEn2.0/databases/MAPs/HCDR3/HCDR3_192.pdb'
p1432
aa(lp1433
S'HCDR3_193'
p1434
aS'/gpfs/work/m/mfa5147/OptMAVEn_Zika/OptMAVEn2.0/databases/MAPs/HCDR3/HCDR3_193.pdb'
p1435
aa(lp1436
S'HCDR3_194'
p1437
aS'/gpfs/work/m/mfa5147/OptMAVEn_Zika/OptMAVEn2.0/databases/MAPs/HCDR3/HCDR3_194.pdb'
p1438
aa(lp1439
S'HCDR3_413'
p1440
aS'/gpfs/work/m/mfa5147/OptMAVEn_Zika/OptMAVEn2.0/databases/MAPs/HCDR3/HCDR3_413.pdb'
p1441
aa(lp1442
S'HCDR3_414'
p1443
aS'/gpfs/work/m/mfa5147/OptMAVEn_Zika/OptMAVEn2.0/databases/MAPs/HCDR3/HCDR3_414.pdb'
p1444
aa(lp1445
S'HCDR3_416'
p1446
aS'/gpfs/work/m/mfa5147/OptMAVEn_Zika/OptMAVEn2.0/databases/MAPs/HCDR3/HCDR3_416.pdb'
p1447
aa(lp1448
S'HCDR3_419'
p1449
aS'/gpfs/work/m/mfa5147/OptMAVEn_Zika/OptMAVEn2.0/databases/MAPs/HCDR3/HCDR3_419.pdb'
p1450
aa(lp1451
S'HCDR3_199'
p1452
aS'/gpfs/work/m/mfa5147/OptMAVEn_Zika/OptMAVEn2.0/databases/MAPs/HCDR3/HCDR3_199.pdb'
p1453
aa(lp1454
S'HCDR3_412'
p1455
aS'/gpfs/work/m/mfa5147/OptMAVEn_Zika/OptMAVEn2.0/databases/MAPs/HCDR3/HCDR3_412.pdb'
p1456
aa(lp1457
S'HCDR3_20'
p1458
aS'/gpfs/work/m/mfa5147/OptMAVEn_Zika/OptMAVEn2.0/databases/MAPs/HCDR3/HCDR3_20.pdb'
p1459
aa(lp1460
S'HCDR3_409'
p1461
aS'/gpfs/work/m/mfa5147/OptMAVEn_Zika/OptMAVEn2.0/databases/MAPs/HCDR3/HCDR3_409.pdb'
p1462
aa(lp1463
S'HCDR3_410'
p1464
aS'/gpfs/work/m/mfa5147/OptMAVEn_Zika/OptMAVEn2.0/databases/MAPs/HCDR3/HCDR3_410.pdb'
p1465
aa(lp1466
S'HCDR3_411'
p1467
aS'/gpfs/work/m/mfa5147/OptMAVEn_Zika/OptMAVEn2.0/databases/MAPs/HCDR3/HCDR3_411.pdb'
p1468
aa(lp1469
S'HCDR3_203'
p1470
aS'/gpfs/work/m/mfa5147/OptMAVEn_Zika/OptMAVEn2.0/databases/MAPs/HCDR3/HCDR3_203.pdb'
p1471
aa(lp1472
S'HCDR3_204'
p1473
aS'/gpfs/work/m/mfa5147/OptMAVEn_Zika/OptMAVEn2.0/databases/MAPs/HCDR3/HCDR3_204.pdb'
p1474
aa(lp1475
S'HCDR3_404'
p1476
aS'/gpfs/work/m/mfa5147/OptMAVEn_Zika/OptMAVEn2.0/databases/MAPs/HCDR3/HCDR3_404.pdb'
p1477
aa(lp1478
S'HCDR3_405'
p1479
aS'/gpfs/work/m/mfa5147/OptMAVEn_Zika/OptMAVEn2.0/databases/MAPs/HCDR3/HCDR3_405.pdb'
p1480
aa(lp1481
S'HCDR3_406'
p1482
aS'/gpfs/work/m/mfa5147/OptMAVEn_Zika/OptMAVEn2.0/databases/MAPs/HCDR3/HCDR3_406.pdb'
p1483
aa(lp1484
S'HCDR3_208'
p1485
aS'/gpfs/work/m/mfa5147/OptMAVEn_Zika/OptMAVEn2.0/databases/MAPs/HCDR3/HCDR3_208.pdb'
p1486
aa(lp1487
S'HCDR3_209'
p1488
aS'/gpfs/work/m/mfa5147/OptMAVEn_Zika/OptMAVEn2.0/databases/MAPs/HCDR3/HCDR3_209.pdb'
p1489
aa(lp1490
S'HCDR3_21'
p1491
aS'/gpfs/work/m/mfa5147/OptMAVEn_Zika/OptMAVEn2.0/databases/MAPs/HCDR3/HCDR3_21.pdb'
p1492
aa(lp1493
S'HCDR3_400'
p1494
aS'/gpfs/work/m/mfa5147/OptMAVEn_Zika/OptMAVEn2.0/databases/MAPs/HCDR3/HCDR3_400.pdb'
p1495
aa(lp1496
S'HCDR3_402'
p1497
aS'/gpfs/work/m/mfa5147/OptMAVEn_Zika/OptMAVEn2.0/databases/MAPs/HCDR3/HCDR3_402.pdb'
p1498
aa(lp1499
S'HCDR3_212'
p1500
aS'/gpfs/work/m/mfa5147/OptMAVEn_Zika/OptMAVEn2.0/databases/MAPs/HCDR3/HCDR3_212.pdb'
p1501
aa(lp1502
S'HCDR3_4'
p1503
aS'/gpfs/work/m/mfa5147/OptMAVEn_Zika/OptMAVEn2.0/databases/MAPs/HCDR3/HCDR3_4.pdb'
p1504
aa(lp1505
S'HCDR3_40'
p1506
aS'/gpfs/work/m/mfa5147/OptMAVEn_Zika/OptMAVEn2.0/databases/MAPs/HCDR3/HCDR3_40.pdb'
p1507
aa(lp1508
S'HCDR3_215'
p1509
aS'/gpfs/work/m/mfa5147/OptMAVEn_Zika/OptMAVEn2.0/databases/MAPs/HCDR3/HCDR3_215.pdb'
p1510
aa(lp1511
S'HCDR3_216'
p1512
aS'/gpfs/work/m/mfa5147/OptMAVEn_Zika/OptMAVEn2.0/databases/MAPs/HCDR3/HCDR3_216.pdb'
p1513
aa(lp1514
S'HCDR3_398'
p1515
aS'/gpfs/work/m/mfa5147/OptMAVEn_Zika/OptMAVEn2.0/databases/MAPs/HCDR3/HCDR3_398.pdb'
p1516
aa(lp1517
S'HCDR3_218'
p1518
aS'/gpfs/work/m/mfa5147/OptMAVEn_Zika/OptMAVEn2.0/databases/MAPs/HCDR3/HCDR3_218.pdb'
p1519
aa(lp1520
S'HCDR3_393'
p1521
aS'/gpfs/work/m/mfa5147/OptMAVEn_Zika/OptMAVEn2.0/databases/MAPs/HCDR3/HCDR3_393.pdb'
p1522
aa(lp1523
S'HCDR3_394'
p1524
aS'/gpfs/work/m/mfa5147/OptMAVEn_Zika/OptMAVEn2.0/databases/MAPs/HCDR3/HCDR3_394.pdb'
p1525
aa(lp1526
S'HCDR3_397'
p1527
aS'/gpfs/work/m/mfa5147/OptMAVEn_Zika/OptMAVEn2.0/databases/MAPs/HCDR3/HCDR3_397.pdb'
p1528
aa(lp1529
S'HCDR3_221'
p1530
aS'/gpfs/work/m/mfa5147/OptMAVEn_Zika/OptMAVEn2.0/databases/MAPs/HCDR3/HCDR3_221.pdb'
p1531
aa(lp1532
S'HCDR3_222'
p1533
aS'/gpfs/work/m/mfa5147/OptMAVEn_Zika/OptMAVEn2.0/databases/MAPs/HCDR3/HCDR3_222.pdb'
p1534
aa(lp1535
S'HCDR3_390'
p1536
aS'/gpfs/work/m/mfa5147/OptMAVEn_Zika/OptMAVEn2.0/databases/MAPs/HCDR3/HCDR3_390.pdb'
p1537
aa(lp1538
S'HCDR3_224'
p1539
aS'/gpfs/work/m/mfa5147/OptMAVEn_Zika/OptMAVEn2.0/databases/MAPs/HCDR3/HCDR3_224.pdb'
p1540
aa(lp1541
S'HCDR3_388'
p1542
aS'/gpfs/work/m/mfa5147/OptMAVEn_Zika/OptMAVEn2.0/databases/MAPs/HCDR3/HCDR3_388.pdb'
p1543
aa(lp1544
S'HCDR3_226'
p1545
aS'/gpfs/work/m/mfa5147/OptMAVEn_Zika/OptMAVEn2.0/databases/MAPs/HCDR3/HCDR3_226.pdb'
p1546
aa(lp1547
S'HCDR3_227'
p1548
aS'/gpfs/work/m/mfa5147/OptMAVEn_Zika/OptMAVEn2.0/databases/MAPs/HCDR3/HCDR3_227.pdb'
p1549
aa(lp1550
S'HCDR3_387'
p1551
aS'/gpfs/work/m/mfa5147/OptMAVEn_Zika/OptMAVEn2.0/databases/MAPs/HCDR3/HCDR3_387.pdb'
p1552
aa(lp1553
S'HCDR3_229'
p1554
aS'/gpfs/work/m/mfa5147/OptMAVEn_Zika/OptMAVEn2.0/databases/MAPs/HCDR3/HCDR3_229.pdb'
p1555
aa(lp1556
S'HCDR3_23'
p1557
aS'/gpfs/work/m/mfa5147/OptMAVEn_Zika/OptMAVEn2.0/databases/MAPs/HCDR3/HCDR3_23.pdb'
p1558
aa(lp1559
S'HCDR3_383'
p1560
aS'/gpfs/work/m/mfa5147/OptMAVEn_Zika/OptMAVEn2.0/databases/MAPs/HCDR3/HCDR3_383.pdb'
p1561
aa(lp1562
S'HCDR3_386'
p1563
aS'/gpfs/work/m/mfa5147/OptMAVEn_Zika/OptMAVEn2.0/databases/MAPs/HCDR3/HCDR3_386.pdb'
p1564
aa(lp1565
S'HCDR3_232'
p1566
aS'/gpfs/work/m/mfa5147/OptMAVEn_Zika/OptMAVEn2.0/databases/MAPs/HCDR3/HCDR3_232.pdb'
p1567
aa(lp1568
S'HCDR3_375'
p1569
aS'/gpfs/work/m/mfa5147/OptMAVEn_Zika/OptMAVEn2.0/databases/MAPs/HCDR3/HCDR3_375.pdb'
p1570
aa(lp1571
S'HCDR3_378'
p1572
aS'/gpfs/work/m/mfa5147/OptMAVEn_Zika/OptMAVEn2.0/databases/MAPs/HCDR3/HCDR3_378.pdb'
p1573
aa(lp1574
S'HCDR3_38'
p1575
aS'/gpfs/work/m/mfa5147/OptMAVEn_Zika/OptMAVEn2.0/databases/MAPs/HCDR3/HCDR3_38.pdb'
p1576
aa(lp1577
S'HCDR3_381'
p1578
aS'/gpfs/work/m/mfa5147/OptMAVEn_Zika/OptMAVEn2.0/databases/MAPs/HCDR3/HCDR3_381.pdb'
p1579
aa(lp1580
S'HCDR3_382'
p1581
aS'/gpfs/work/m/mfa5147/OptMAVEn_Zika/OptMAVEn2.0/databases/MAPs/HCDR3/HCDR3_382.pdb'
p1582
aa(lp1583
S'HCDR3_238'
p1584
aS'/gpfs/work/m/mfa5147/OptMAVEn_Zika/OptMAVEn2.0/databases/MAPs/HCDR3/HCDR3_238.pdb'
p1585
aa(lp1586
S'HCDR3_239'
p1587
aS'/gpfs/work/m/mfa5147/OptMAVEn_Zika/OptMAVEn2.0/databases/MAPs/HCDR3/HCDR3_239.pdb'
p1588
aa(lp1589
S'HCDR3_374'
p1590
aS'/gpfs/work/m/mfa5147/OptMAVEn_Zika/OptMAVEn2.0/databases/MAPs/HCDR3/HCDR3_374.pdb'
p1591
aa(lp1592
S'HCDR3_240'
p1593
aS'/gpfs/work/m/mfa5147/OptMAVEn_Zika/OptMAVEn2.0/databases/MAPs/HCDR3/HCDR3_240.pdb'
p1594
aa(lp1595
S'HCDR3_241'
p1596
aS'/gpfs/work/m/mfa5147/OptMAVEn_Zika/OptMAVEn2.0/databases/MAPs/HCDR3/HCDR3_241.pdb'
p1597
aa(lp1598
S'HCDR3_242'
p1599
aS'/gpfs/work/m/mfa5147/OptMAVEn_Zika/OptMAVEn2.0/databases/MAPs/HCDR3/HCDR3_242.pdb'
p1600
aa(lp1601
S'HCDR3_243'
p1602
aS'/gpfs/work/m/mfa5147/OptMAVEn_Zika/OptMAVEn2.0/databases/MAPs/HCDR3/HCDR3_243.pdb'
p1603
aa(lp1604
S'HCDR3_244'
p1605
aS'/gpfs/work/m/mfa5147/OptMAVEn_Zika/OptMAVEn2.0/databases/MAPs/HCDR3/HCDR3_244.pdb'
p1606
aa(lp1607
S'HCDR3_245'
p1608
aS'/gpfs/work/m/mfa5147/OptMAVEn_Zika/OptMAVEn2.0/databases/MAPs/HCDR3/HCDR3_245.pdb'
p1609
aa(lp1610
S'HCDR3_369'
p1611
aS'/gpfs/work/m/mfa5147/OptMAVEn_Zika/OptMAVEn2.0/databases/MAPs/HCDR3/HCDR3_369.pdb'
p1612
aa(lp1613
S'HCDR3_370'
p1614
aS'/gpfs/work/m/mfa5147/OptMAVEn_Zika/OptMAVEn2.0/databases/MAPs/HCDR3/HCDR3_370.pdb'
p1615
aa(lp1616
S'HCDR3_248'
p1617
aS'/gpfs/work/m/mfa5147/OptMAVEn_Zika/OptMAVEn2.0/databases/MAPs/HCDR3/HCDR3_248.pdb'
p1618
aa(lp1619
S'HCDR3_249'
p1620
aS'/gpfs/work/m/mfa5147/OptMAVEn_Zika/OptMAVEn2.0/databases/MAPs/HCDR3/HCDR3_249.pdb'
p1621
aa(lp1622
S'HCDR3_367'
p1623
aS'/gpfs/work/m/mfa5147/OptMAVEn_Zika/OptMAVEn2.0/databases/MAPs/HCDR3/HCDR3_367.pdb'
p1624
aa(lp1625
S'HCDR3_368'
p1626
aS'/gpfs/work/m/mfa5147/OptMAVEn_Zika/OptMAVEn2.0/databases/MAPs/HCDR3/HCDR3_368.pdb'
p1627
aa(lp1628
S'HCDR3_251'
p1629
aS'/gpfs/work/m/mfa5147/OptMAVEn_Zika/OptMAVEn2.0/databases/MAPs/HCDR3/HCDR3_251.pdb'
p1630
aa(lp1631
S'HCDR3_252'
p1632
aS'/gpfs/work/m/mfa5147/OptMAVEn_Zika/OptMAVEn2.0/databases/MAPs/HCDR3/HCDR3_252.pdb'
p1633
aa(lp1634
S'HCDR3_362'
p1635
aS'/gpfs/work/m/mfa5147/OptMAVEn_Zika/OptMAVEn2.0/databases/MAPs/HCDR3/HCDR3_362.pdb'
p1636
aa(lp1637
S'HCDR3_363'
p1638
aS'/gpfs/work/m/mfa5147/OptMAVEn_Zika/OptMAVEn2.0/databases/MAPs/HCDR3/HCDR3_363.pdb'
p1639
aa(lp1640
S'HCDR3_364'
p1641
aS'/gpfs/work/m/mfa5147/OptMAVEn_Zika/OptMAVEn2.0/databases/MAPs/HCDR3/HCDR3_364.pdb'
p1642
aa(lp1643
S'HCDR3_256'
p1644
aS'/gpfs/work/m/mfa5147/OptMAVEn_Zika/OptMAVEn2.0/databases/MAPs/HCDR3/HCDR3_256.pdb'
p1645
aa(lp1646
S'HCDR3_257'
p1647
aS'/gpfs/work/m/mfa5147/OptMAVEn_Zika/OptMAVEn2.0/databases/MAPs/HCDR3/HCDR3_257.pdb'
p1648
aa(lp1649
S'HCDR3_258'
p1650
aS'/gpfs/work/m/mfa5147/OptMAVEn_Zika/OptMAVEn2.0/databases/MAPs/HCDR3/HCDR3_258.pdb'
p1651
aa(lp1652
S'HCDR3_361'
p1653
aS'/gpfs/work/m/mfa5147/OptMAVEn_Zika/OptMAVEn2.0/databases/MAPs/HCDR3/HCDR3_361.pdb'
p1654
aa(lp1655
S'HCDR3_26'
p1656
aS'/gpfs/work/m/mfa5147/OptMAVEn_Zika/OptMAVEn2.0/databases/MAPs/HCDR3/HCDR3_26.pdb'
p1657
aa(lp1658
S'HCDR3_354'
p1659
aS'/gpfs/work/m/mfa5147/OptMAVEn_Zika/OptMAVEn2.0/databases/MAPs/HCDR3/HCDR3_354.pdb'
p1660
aa(lp1661
S'HCDR3_355'
p1662
aS'/gpfs/work/m/mfa5147/OptMAVEn_Zika/OptMAVEn2.0/databases/MAPs/HCDR3/HCDR3_355.pdb'
p1663
aa(lp1664
S'HCDR3_36'
p1665
aS'/gpfs/work/m/mfa5147/OptMAVEn_Zika/OptMAVEn2.0/databases/MAPs/HCDR3/HCDR3_36.pdb'
p1666
aa(lp1667
S'HCDR3_263'
p1668
aS'/gpfs/work/m/mfa5147/OptMAVEn_Zika/OptMAVEn2.0/databases/MAPs/HCDR3/HCDR3_263.pdb'
p1669
aa(lp1670
S'HCDR3_264'
p1671
aS'/gpfs/work/m/mfa5147/OptMAVEn_Zika/OptMAVEn2.0/databases/MAPs/HCDR3/HCDR3_264.pdb'
p1672
aa(lp1673
S'HCDR3_351'
p1674
aS'/gpfs/work/m/mfa5147/OptMAVEn_Zika/OptMAVEn2.0/databases/MAPs/HCDR3/HCDR3_351.pdb'
p1675
aa(lp1676
S'HCDR3_352'
p1677
aS'/gpfs/work/m/mfa5147/OptMAVEn_Zika/OptMAVEn2.0/databases/MAPs/HCDR3/HCDR3_352.pdb'
p1678
aa(lp1679
S'HCDR3_353'
p1680
aS'/gpfs/work/m/mfa5147/OptMAVEn_Zika/OptMAVEn2.0/databases/MAPs/HCDR3/HCDR3_353.pdb'
p1681
aa(lp1682
S'HCDR3_268'
p1683
aS'/gpfs/work/m/mfa5147/OptMAVEn_Zika/OptMAVEn2.0/databases/MAPs/HCDR3/HCDR3_268.pdb'
p1684
aa(lp1685
S'HCDR3_35'
p1686
aS'/gpfs/work/m/mfa5147/OptMAVEn_Zika/OptMAVEn2.0/databases/MAPs/HCDR3/HCDR3_35.pdb'
p1687
aa(lp1688
S'HCDR3_27'
p1689
aS'/gpfs/work/m/mfa5147/OptMAVEn_Zika/OptMAVEn2.0/databases/MAPs/HCDR3/HCDR3_27.pdb'
p1690
aa(lp1691
S'HCDR3_270'
p1692
aS'/gpfs/work/m/mfa5147/OptMAVEn_Zika/OptMAVEn2.0/databases/MAPs/HCDR3/HCDR3_270.pdb'
p1693
aa(lp1694
S'HCDR3_271'
p1695
aS'/gpfs/work/m/mfa5147/OptMAVEn_Zika/OptMAVEn2.0/databases/MAPs/HCDR3/HCDR3_271.pdb'
p1696
aa(lp1697
S'HCDR3_272'
p1698
aS'/gpfs/work/m/mfa5147/OptMAVEn_Zika/OptMAVEn2.0/databases/MAPs/HCDR3/HCDR3_272.pdb'
p1699
aa(lp1700
S'HCDR3_346'
p1701
aS'/gpfs/work/m/mfa5147/OptMAVEn_Zika/OptMAVEn2.0/databases/MAPs/HCDR3/HCDR3_346.pdb'
p1702
aa(lp1703
S'HCDR3_348'
p1704
aS'/gpfs/work/m/mfa5147/OptMAVEn_Zika/OptMAVEn2.0/databases/MAPs/HCDR3/HCDR3_348.pdb'
p1705
aa(lp1706
S'HCDR3_275'
p1707
aS'/gpfs/work/m/mfa5147/OptMAVEn_Zika/OptMAVEn2.0/databases/MAPs/HCDR3/HCDR3_275.pdb'
p1708
aa(lp1709
S'HCDR3_276'
p1710
aS'/gpfs/work/m/mfa5147/OptMAVEn_Zika/OptMAVEn2.0/databases/MAPs/HCDR3/HCDR3_276.pdb'
p1711
aa(lp1712
S'HCDR3_277'
p1713
aS'/gpfs/work/m/mfa5147/OptMAVEn_Zika/OptMAVEn2.0/databases/MAPs/HCDR3/HCDR3_277.pdb'
p1714
aa(lp1715
S'HCDR3_342'
p1716
aS'/gpfs/work/m/mfa5147/OptMAVEn_Zika/OptMAVEn2.0/databases/MAPs/HCDR3/HCDR3_342.pdb'
p1717
aa(lp1718
S'HCDR3_344'
p1719
aS'/gpfs/work/m/mfa5147/OptMAVEn_Zika/OptMAVEn2.0/databases/MAPs/HCDR3/HCDR3_344.pdb'
p1720
aa(lp1721
S'HCDR3_28'
p1722
aS'/gpfs/work/m/mfa5147/OptMAVEn_Zika/OptMAVEn2.0/databases/MAPs/HCDR3/HCDR3_28.pdb'
p1723
aa(lp1724
S'HCDR3_336'
p1725
aS'/gpfs/work/m/mfa5147/OptMAVEn_Zika/OptMAVEn2.0/databases/MAPs/HCDR3/HCDR3_336.pdb'
p1726
aa(lp1727
S'HCDR3_337'
p1728
aS'/gpfs/work/m/mfa5147/OptMAVEn_Zika/OptMAVEn2.0/databases/MAPs/HCDR3/HCDR3_337.pdb'
p1729
aa(lp1730
S'HCDR3_338'
p1731
aS'/gpfs/work/m/mfa5147/OptMAVEn_Zika/OptMAVEn2.0/databases/MAPs/HCDR3/HCDR3_338.pdb'
p1732
aa(lp1733
S'HCDR3_339'
p1734
aS'/gpfs/work/m/mfa5147/OptMAVEn_Zika/OptMAVEn2.0/databases/MAPs/HCDR3/HCDR3_339.pdb'
p1735
aa(lp1736
S'HCDR3_34'
p1737
aS'/gpfs/work/m/mfa5147/OptMAVEn_Zika/OptMAVEn2.0/databases/MAPs/HCDR3/HCDR3_34.pdb'
p1738
aa(lp1739
S'HCDR3_341'
p1740
aS'/gpfs/work/m/mfa5147/OptMAVEn_Zika/OptMAVEn2.0/databases/MAPs/HCDR3/HCDR3_341.pdb'
p1741
aa(lp1742
S'HCDR3_286'
p1743
aS'/gpfs/work/m/mfa5147/OptMAVEn_Zika/OptMAVEn2.0/databases/MAPs/HCDR3/HCDR3_286.pdb'
p1744
aa(lp1745
S'HCDR3_287'
p1746
aS'/gpfs/work/m/mfa5147/OptMAVEn_Zika/OptMAVEn2.0/databases/MAPs/HCDR3/HCDR3_287.pdb'
p1747
aa(lp1748
S'HCDR3_288'
p1749
aS'/gpfs/work/m/mfa5147/OptMAVEn_Zika/OptMAVEn2.0/databases/MAPs/HCDR3/HCDR3_288.pdb'
p1750
aa(lp1751
S'HCDR3_331'
p1752
aS'/gpfs/work/m/mfa5147/OptMAVEn_Zika/OptMAVEn2.0/databases/MAPs/HCDR3/HCDR3_331.pdb'
p1753
aa(lp1754
S'HCDR3_333'
p1755
aS'/gpfs/work/m/mfa5147/OptMAVEn_Zika/OptMAVEn2.0/databases/MAPs/HCDR3/HCDR3_333.pdb'
p1756
aa(lp1757
S'HCDR3_335'
p1758
aS'/gpfs/work/m/mfa5147/OptMAVEn_Zika/OptMAVEn2.0/databases/MAPs/HCDR3/HCDR3_335.pdb'
p1759
aa(lp1760
S'HCDR3_291'
p1761
aS'/gpfs/work/m/mfa5147/OptMAVEn_Zika/OptMAVEn2.0/databases/MAPs/HCDR3/HCDR3_291.pdb'
p1762
aa(lp1763
S'HCDR3_326'
p1764
aS'/gpfs/work/m/mfa5147/OptMAVEn_Zika/OptMAVEn2.0/databases/MAPs/HCDR3/HCDR3_326.pdb'
p1765
aa(lp1766
S'HCDR3_328'
p1767
aS'/gpfs/work/m/mfa5147/OptMAVEn_Zika/OptMAVEn2.0/databases/MAPs/HCDR3/HCDR3_328.pdb'
p1768
aa(lp1769
S'HCDR3_330'
p1770
aS'/gpfs/work/m/mfa5147/OptMAVEn_Zika/OptMAVEn2.0/databases/MAPs/HCDR3/HCDR3_330.pdb'
p1771
aa(lp1772
S'HCDR3_295'
p1773
aS'/gpfs/work/m/mfa5147/OptMAVEn_Zika/OptMAVEn2.0/databases/MAPs/HCDR3/HCDR3_295.pdb'
p1774
aa(lp1775
S'HCDR3_320'
p1776
aS'/gpfs/work/m/mfa5147/OptMAVEn_Zika/OptMAVEn2.0/databases/MAPs/HCDR3/HCDR3_320.pdb'
p1777
aa(lp1778
S'HCDR3_323'
p1779
aS'/gpfs/work/m/mfa5147/OptMAVEn_Zika/OptMAVEn2.0/databases/MAPs/HCDR3/HCDR3_323.pdb'
p1780
aa(lp1781
S'HCDR3_298'
p1782
aS'/gpfs/work/m/mfa5147/OptMAVEn_Zika/OptMAVEn2.0/databases/MAPs/HCDR3/HCDR3_298.pdb'
p1783
aa(lp1784
S'HCDR3_299'
p1785
aS'/gpfs/work/m/mfa5147/OptMAVEn_Zika/OptMAVEn2.0/databases/MAPs/HCDR3/HCDR3_299.pdb'
p1786
aa(lp1787
S'HCDR3_3'
p1788
aS'/gpfs/work/m/mfa5147/OptMAVEn_Zika/OptMAVEn2.0/databases/MAPs/HCDR3/HCDR3_3.pdb'
p1789
aa(lp1790
S'HCDR3_30'
p1791
aS'/gpfs/work/m/mfa5147/OptMAVEn_Zika/OptMAVEn2.0/databases/MAPs/HCDR3/HCDR3_30.pdb'
p1792
aa(lp1793
S'HCDR3_317'
p1794
aS'/gpfs/work/m/mfa5147/OptMAVEn_Zika/OptMAVEn2.0/databases/MAPs/HCDR3/HCDR3_317.pdb'
p1795
aa(lp1796
S'HCDR3_318'
p1797
aS'/gpfs/work/m/mfa5147/OptMAVEn_Zika/OptMAVEn2.0/databases/MAPs/HCDR3/HCDR3_318.pdb'
p1798
aa(lp1799
S'HCDR3_302'
p1800
aS'/gpfs/work/m/mfa5147/OptMAVEn_Zika/OptMAVEn2.0/databases/MAPs/HCDR3/HCDR3_302.pdb'
p1801
aa(lp1802
S'HCDR3_303'
p1803
aS'/gpfs/work/m/mfa5147/OptMAVEn_Zika/OptMAVEn2.0/databases/MAPs/HCDR3/HCDR3_303.pdb'
p1804
aa(lp1805
S'HCDR3_304'
p1806
aS'/gpfs/work/m/mfa5147/OptMAVEn_Zika/OptMAVEn2.0/databases/MAPs/HCDR3/HCDR3_304.pdb'
p1807
aa(lp1808
S'HCDR3_305'
p1809
aS'/gpfs/work/m/mfa5147/OptMAVEn_Zika/OptMAVEn2.0/databases/MAPs/HCDR3/HCDR3_305.pdb'
p1810
aa(lp1811
S'HCDR3_306'
p1812
aS'/gpfs/work/m/mfa5147/OptMAVEn_Zika/OptMAVEn2.0/databases/MAPs/HCDR3/HCDR3_306.pdb'
p1813
aa(lp1814
S'HCDR3_307'
p1815
aS'/gpfs/work/m/mfa5147/OptMAVEn_Zika/OptMAVEn2.0/databases/MAPs/HCDR3/HCDR3_307.pdb'
p1816
aa(lp1817
S'HCDR3_316'
p1818
aS'/gpfs/work/m/mfa5147/OptMAVEn_Zika/OptMAVEn2.0/databases/MAPs/HCDR3/HCDR3_316.pdb'
p1819
aa(lp1820
S'HCDR3_309'
p1821
aS'/gpfs/work/m/mfa5147/OptMAVEn_Zika/OptMAVEn2.0/databases/MAPs/HCDR3/HCDR3_309.pdb'
p1822
aa(lp1823
S'HCDR3_314'
p1824
aS'/gpfs/work/m/mfa5147/OptMAVEn_Zika/OptMAVEn2.0/databases/MAPs/HCDR3/HCDR3_314.pdb'
p1825
aa(lp1826
S'HCDR3_315'
p1827
aS'/gpfs/work/m/mfa5147/OptMAVEn_Zika/OptMAVEn2.0/databases/MAPs/HCDR3/HCDR3_315.pdb'
p1828
aa(lp1829
S'HCDR3_311'
p1830
aS'/gpfs/work/m/mfa5147/OptMAVEn_Zika/OptMAVEn2.0/databases/MAPs/HCDR3/HCDR3_311.pdb'
p1831
aa(lp1832
S'HCDR3_312'
p1833
aS'/gpfs/work/m/mfa5147/OptMAVEn_Zika/OptMAVEn2.0/databases/MAPs/HCDR3/HCDR3_312.pdb'
p1834
aa(lp1835
S'HCDR3_10'
p1836
aS'/gpfs/work/m/mfa5147/OptMAVEn_Zika/OptMAVEn2.0/databases/MAPs/HCDR3/HCDR3_10.pdb'
p1837
aa(lp1838
S'HCDR3_100'
p1839
aS'/gpfs/work/m/mfa5147/OptMAVEn_Zika/OptMAVEn2.0/databases/MAPs/HCDR3/HCDR3_100.pdb'
p1840
aa(lp1841
S'HCDR3_102'
p1842
aS'/gpfs/work/m/mfa5147/OptMAVEn_Zika/OptMAVEn2.0/databases/MAPs/HCDR3/HCDR3_102.pdb'
p1843
aa(lp1844
S'HCDR3_103'
p1845
aS'/gpfs/work/m/mfa5147/OptMAVEn_Zika/OptMAVEn2.0/databases/MAPs/HCDR3/HCDR3_103.pdb'
p1846
aa(lp1847
S'HCDR3_104'
p1848
aS'/gpfs/work/m/mfa5147/OptMAVEn_Zika/OptMAVEn2.0/databases/MAPs/HCDR3/HCDR3_104.pdb'
p1849
aa(lp1850
S'HCDR3_105'
p1851
aS'/gpfs/work/m/mfa5147/OptMAVEn_Zika/OptMAVEn2.0/databases/MAPs/HCDR3/HCDR3_105.pdb'
p1852
aa(lp1853
S'HCDR3_106'
p1854
aS'/gpfs/work/m/mfa5147/OptMAVEn_Zika/OptMAVEn2.0/databases/MAPs/HCDR3/HCDR3_106.pdb'
p1855
aa(lp1856
S'HCDR3_107'
p1857
aS'/gpfs/work/m/mfa5147/OptMAVEn_Zika/OptMAVEn2.0/databases/MAPs/HCDR3/HCDR3_107.pdb'
p1858
aa(lp1859
S'HCDR3_109'
p1860
aS'/gpfs/work/m/mfa5147/OptMAVEn_Zika/OptMAVEn2.0/databases/MAPs/HCDR3/HCDR3_109.pdb'
p1861
aa(lp1862
S'HCDR3_110'
p1863
aS'/gpfs/work/m/mfa5147/OptMAVEn_Zika/OptMAVEn2.0/databases/MAPs/HCDR3/HCDR3_110.pdb'
p1864
aa(lp1865
S'HCDR3_111'
p1866
aS'/gpfs/work/m/mfa5147/OptMAVEn_Zika/OptMAVEn2.0/databases/MAPs/HCDR3/HCDR3_111.pdb'
p1867
aa(lp1868
S'HCDR3_113'
p1869
aS'/gpfs/work/m/mfa5147/OptMAVEn_Zika/OptMAVEn2.0/databases/MAPs/HCDR3/HCDR3_113.pdb'
p1870
aa(lp1871
S'HCDR3_114'
p1872
aS'/gpfs/work/m/mfa5147/OptMAVEn_Zika/OptMAVEn2.0/databases/MAPs/HCDR3/HCDR3_114.pdb'
p1873
aa(lp1874
S'HCDR3_116'
p1875
aS'/gpfs/work/m/mfa5147/OptMAVEn_Zika/OptMAVEn2.0/databases/MAPs/HCDR3/HCDR3_116.pdb'
p1876
aa(lp1877
S'HCDR3_117'
p1878
aS'/gpfs/work/m/mfa5147/OptMAVEn_Zika/OptMAVEn2.0/databases/MAPs/HCDR3/HCDR3_117.pdb'
p1879
aa(lp1880
S'HCDR3_118'
p1881
aS'/gpfs/work/m/mfa5147/OptMAVEn_Zika/OptMAVEn2.0/databases/MAPs/HCDR3/HCDR3_118.pdb'
p1882
aa(lp1883
S'HCDR3_12'
p1884
aS'/gpfs/work/m/mfa5147/OptMAVEn_Zika/OptMAVEn2.0/databases/MAPs/HCDR3/HCDR3_12.pdb'
p1885
aa(lp1886
S'HCDR3_120'
p1887
aS'/gpfs/work/m/mfa5147/OptMAVEn_Zika/OptMAVEn2.0/databases/MAPs/HCDR3/HCDR3_120.pdb'
p1888
aa(lp1889
S'HCDR3_122'
p1890
aS'/gpfs/work/m/mfa5147/OptMAVEn_Zika/OptMAVEn2.0/databases/MAPs/HCDR3/HCDR3_122.pdb'
p1891
aa(lp1892
S'HCDR3_125'
p1893
aS'/gpfs/work/m/mfa5147/OptMAVEn_Zika/OptMAVEn2.0/databases/MAPs/HCDR3/HCDR3_125.pdb'
p1894
aa(lp1895
S'HCDR3_127'
p1896
aS'/gpfs/work/m/mfa5147/OptMAVEn_Zika/OptMAVEn2.0/databases/MAPs/HCDR3/HCDR3_127.pdb'
p1897
aa(lp1898
S'HCDR3_129'
p1899
aS'/gpfs/work/m/mfa5147/OptMAVEn_Zika/OptMAVEn2.0/databases/MAPs/HCDR3/HCDR3_129.pdb'
p1900
aa(lp1901
S'HCDR3_136'
p1902
aS'/gpfs/work/m/mfa5147/OptMAVEn_Zika/OptMAVEn2.0/databases/MAPs/HCDR3/HCDR3_136.pdb'
p1903
aa(lp1904
S'HCDR3_137'
p1905
aS'/gpfs/work/m/mfa5147/OptMAVEn_Zika/OptMAVEn2.0/databases/MAPs/HCDR3/HCDR3_137.pdb'
p1906
aa(lp1907
S'HCDR3_139'
p1908
aS'/gpfs/work/m/mfa5147/OptMAVEn_Zika/OptMAVEn2.0/databases/MAPs/HCDR3/HCDR3_139.pdb'
p1909
aa(lp1910
S'HCDR3_140'
p1911
aS'/gpfs/work/m/mfa5147/OptMAVEn_Zika/OptMAVEn2.0/databases/MAPs/HCDR3/HCDR3_140.pdb'
p1912
aa(lp1913
S'HCDR3_141'
p1914
aS'/gpfs/work/m/mfa5147/OptMAVEn_Zika/OptMAVEn2.0/databases/MAPs/HCDR3/HCDR3_141.pdb'
p1915
aa(lp1916
S'HCDR3_143'
p1917
aS'/gpfs/work/m/mfa5147/OptMAVEn_Zika/OptMAVEn2.0/databases/MAPs/HCDR3/HCDR3_143.pdb'
p1918
aa(lp1919
S'HCDR3_144'
p1920
aS'/gpfs/work/m/mfa5147/OptMAVEn_Zika/OptMAVEn2.0/databases/MAPs/HCDR3/HCDR3_144.pdb'
p1921
aa(lp1922
S'HCDR3_148'
p1923
aS'/gpfs/work/m/mfa5147/OptMAVEn_Zika/OptMAVEn2.0/databases/MAPs/HCDR3/HCDR3_148.pdb'
p1924
aa(lp1925
S'HCDR3_15'
p1926
aS'/gpfs/work/m/mfa5147/OptMAVEn_Zika/OptMAVEn2.0/databases/MAPs/HCDR3/HCDR3_15.pdb'
p1927
aa(lp1928
S'HCDR3_150'
p1929
aS'/gpfs/work/m/mfa5147/OptMAVEn_Zika/OptMAVEn2.0/databases/MAPs/HCDR3/HCDR3_150.pdb'
p1930
aa(lp1931
S'HCDR3_151'
p1932
aS'/gpfs/work/m/mfa5147/OptMAVEn_Zika/OptMAVEn2.0/databases/MAPs/HCDR3/HCDR3_151.pdb'
p1933
aa(lp1934
S'HCDR3_152'
p1935
aS'/gpfs/work/m/mfa5147/OptMAVEn_Zika/OptMAVEn2.0/databases/MAPs/HCDR3/HCDR3_152.pdb'
p1936
aa(lp1937
S'HCDR3_154'
p1938
aS'/gpfs/work/m/mfa5147/OptMAVEn_Zika/OptMAVEn2.0/databases/MAPs/HCDR3/HCDR3_154.pdb'
p1939
aa(lp1940
S'HCDR3_155'
p1941
aS'/gpfs/work/m/mfa5147/OptMAVEn_Zika/OptMAVEn2.0/databases/MAPs/HCDR3/HCDR3_155.pdb'
p1942
aa(lp1943
S'HCDR3_156'
p1944
aS'/gpfs/work/m/mfa5147/OptMAVEn_Zika/OptMAVEn2.0/databases/MAPs/HCDR3/HCDR3_156.pdb'
p1945
aa(lp1946
S'HCDR3_157'
p1947
aS'/gpfs/work/m/mfa5147/OptMAVEn_Zika/OptMAVEn2.0/databases/MAPs/HCDR3/HCDR3_157.pdb'
p1948
aa(lp1949
S'HCDR3_158'
p1950
aS'/gpfs/work/m/mfa5147/OptMAVEn_Zika/OptMAVEn2.0/databases/MAPs/HCDR3/HCDR3_158.pdb'
p1951
aa(lp1952
S'HCDR3_159'
p1953
aS'/gpfs/work/m/mfa5147/OptMAVEn_Zika/OptMAVEn2.0/databases/MAPs/HCDR3/HCDR3_159.pdb'
p1954
aa(lp1955
S'HCDR3_16'
p1956
aS'/gpfs/work/m/mfa5147/OptMAVEn_Zika/OptMAVEn2.0/databases/MAPs/HCDR3/HCDR3_16.pdb'
p1957
aa(lp1958
S'HCDR3_161'
p1959
aS'/gpfs/work/m/mfa5147/OptMAVEn_Zika/OptMAVEn2.0/databases/MAPs/HCDR3/HCDR3_161.pdb'
p1960
aa(lp1961
S'HCDR3_163'
p1962
aS'/gpfs/work/m/mfa5147/OptMAVEn_Zika/OptMAVEn2.0/databases/MAPs/HCDR3/HCDR3_163.pdb'
p1963
aa(lp1964
S'HCDR3_99'
p1965
aS'/gpfs/work/m/mfa5147/OptMAVEn_Zika/OptMAVEn2.0/databases/MAPs/HCDR3/HCDR3_99.pdb'
p1966
aa(lp1967
S'HCDR3_165'
p1968
aS'/gpfs/work/m/mfa5147/OptMAVEn_Zika/OptMAVEn2.0/databases/MAPs/HCDR3/HCDR3_165.pdb'
p1969
aa(lp1970
S'HCDR3_89'
p1971
aS'/gpfs/work/m/mfa5147/OptMAVEn_Zika/OptMAVEn2.0/databases/MAPs/HCDR3/HCDR3_89.pdb'
p1972
aa(lp1973
S'HCDR3_92'
p1974
aS'/gpfs/work/m/mfa5147/OptMAVEn_Zika/OptMAVEn2.0/databases/MAPs/HCDR3/HCDR3_92.pdb'
p1975
aa(lp1976
S'HCDR3_97'
p1977
aS'/gpfs/work/m/mfa5147/OptMAVEn_Zika/OptMAVEn2.0/databases/MAPs/HCDR3/HCDR3_97.pdb'
p1978
aa(lp1979
S'HCDR3_98'
p1980
aS'/gpfs/work/m/mfa5147/OptMAVEn_Zika/OptMAVEn2.0/databases/MAPs/HCDR3/HCDR3_98.pdb'
p1981
aa(lp1982
S'HCDR3_17'
p1983
aS'/gpfs/work/m/mfa5147/OptMAVEn_Zika/OptMAVEn2.0/databases/MAPs/HCDR3/HCDR3_17.pdb'
p1984
aa(lp1985
S'HCDR3_170'
p1986
aS'/gpfs/work/m/mfa5147/OptMAVEn_Zika/OptMAVEn2.0/databases/MAPs/HCDR3/HCDR3_170.pdb'
p1987
aa(lp1988
S'HCDR3_86'
p1989
aS'/gpfs/work/m/mfa5147/OptMAVEn_Zika/OptMAVEn2.0/databases/MAPs/HCDR3/HCDR3_86.pdb'
p1990
aa(lp1991
S'HCDR3_172'
p1992
aS'/gpfs/work/m/mfa5147/OptMAVEn_Zika/OptMAVEn2.0/databases/MAPs/HCDR3/HCDR3_172.pdb'
p1993
aa(lp1994
S'HCDR3_173'
p1995
aS'/gpfs/work/m/mfa5147/OptMAVEn_Zika/OptMAVEn2.0/databases/MAPs/HCDR3/HCDR3_173.pdb'
p1996
aa(lp1997
S'HCDR3_82'
p1998
aS'/gpfs/work/m/mfa5147/OptMAVEn_Zika/OptMAVEn2.0/databases/MAPs/HCDR3/HCDR3_82.pdb'
p1999
aa(lp2000
S'HCDR3_85'
p2001
aS'/gpfs/work/m/mfa5147/OptMAVEn_Zika/OptMAVEn2.0/databases/MAPs/HCDR3/HCDR3_85.pdb'
p2002
aa(lp2003
S'HCDR3_176'
p2004
aS'/gpfs/work/m/mfa5147/OptMAVEn_Zika/OptMAVEn2.0/databases/MAPs/HCDR3/HCDR3_176.pdb'
p2005
aa(lp2006
S'HCDR3_177'
p2007
aS'/gpfs/work/m/mfa5147/OptMAVEn_Zika/OptMAVEn2.0/databases/MAPs/HCDR3/HCDR3_177.pdb'
p2008
aa(lp2009
S'HCDR3_178'
p2010
aS'/gpfs/work/m/mfa5147/OptMAVEn_Zika/OptMAVEn2.0/databases/MAPs/HCDR3/HCDR3_178.pdb'
p2011
aa(lp2012
S'HCDR3_179'
p2013
aS'/gpfs/work/m/mfa5147/OptMAVEn_Zika/OptMAVEn2.0/databases/MAPs/HCDR3/HCDR3_179.pdb'
p2014
aa(lp2015
S'HCDR3_76'
p2016
aS'/gpfs/work/m/mfa5147/OptMAVEn_Zika/OptMAVEn2.0/databases/MAPs/HCDR3/HCDR3_76.pdb'
p2017
aa(lp2018
S'HCDR3_77'
p2019
aS'/gpfs/work/m/mfa5147/OptMAVEn_Zika/OptMAVEn2.0/databases/MAPs/HCDR3/HCDR3_77.pdb'
p2020
aa(lp2021
S'HCDR3_78'
p2022
aS'/gpfs/work/m/mfa5147/OptMAVEn_Zika/OptMAVEn2.0/databases/MAPs/HCDR3/HCDR3_78.pdb'
p2023
aa(lp2024
S'HCDR3_79'
p2025
aS'/gpfs/work/m/mfa5147/OptMAVEn_Zika/OptMAVEn2.0/databases/MAPs/HCDR3/HCDR3_79.pdb'
p2026
aa(lp2027
S'HCDR3_8'
p2028
aS'/gpfs/work/m/mfa5147/OptMAVEn_Zika/OptMAVEn2.0/databases/MAPs/HCDR3/HCDR3_8.pdb'
p2029
aa(lp2030
S'HCDR3_80'
p2031
aS'/gpfs/work/m/mfa5147/OptMAVEn_Zika/OptMAVEn2.0/databases/MAPs/HCDR3/HCDR3_80.pdb'
p2032
aa(lp2033
S'HCDR3_185'
p2034
aS'/gpfs/work/m/mfa5147/OptMAVEn_Zika/OptMAVEn2.0/databases/MAPs/HCDR3/HCDR3_185.pdb'
p2035
aa(lp2036
S'HCDR3_186'
p2037
aS'/gpfs/work/m/mfa5147/OptMAVEn_Zika/OptMAVEn2.0/databases/MAPs/HCDR3/HCDR3_186.pdb'
p2038
aa(lp2039
S'HCDR3_68'
p2040
aS'/gpfs/work/m/mfa5147/OptMAVEn_Zika/OptMAVEn2.0/databases/MAPs/HCDR3/HCDR3_68.pdb'
p2041
aa(lp2042
S'HCDR3_70'
p2043
aS'/gpfs/work/m/mfa5147/OptMAVEn_Zika/OptMAVEn2.0/databases/MAPs/HCDR3/HCDR3_70.pdb'
p2044
aa(lp2045
S'HCDR3_71'
p2046
aS'/gpfs/work/m/mfa5147/OptMAVEn_Zika/OptMAVEn2.0/databases/MAPs/HCDR3/HCDR3_71.pdb'
p2047
aa(lp2048
S'HCDR3_73'
p2049
aS'/gpfs/work/m/mfa5147/OptMAVEn_Zika/OptMAVEn2.0/databases/MAPs/HCDR3/HCDR3_73.pdb'
p2050
aa(lp2051
S'HCDR3_190'
p2052
aS'/gpfs/work/m/mfa5147/OptMAVEn_Zika/OptMAVEn2.0/databases/MAPs/HCDR3/HCDR3_190.pdb'
p2053
aa(lp2054
S'HCDR3_191'
p2055
aS'/gpfs/work/m/mfa5147/OptMAVEn_Zika/OptMAVEn2.0/databases/MAPs/HCDR3/HCDR3_191.pdb'
p2056
aa(lp2057
S'HCDR3_65'
p2058
aS'/gpfs/work/m/mfa5147/OptMAVEn_Zika/OptMAVEn2.0/databases/MAPs/HCDR3/HCDR3_65.pdb'
p2059
aa(lp2060
S'HCDR3_66'
p2061
aS'/gpfs/work/m/mfa5147/OptMAVEn_Zika/OptMAVEn2.0/databases/MAPs/HCDR3/HCDR3_66.pdb'
p2062
aa(lp2063
S'HCDR3_67'
p2064
aS'/gpfs/work/m/mfa5147/OptMAVEn_Zika/OptMAVEn2.0/databases/MAPs/HCDR3/HCDR3_67.pdb'
p2065
aa(lp2066
S'HCDR3_195'
p2067
aS'/gpfs/work/m/mfa5147/OptMAVEn_Zika/OptMAVEn2.0/databases/MAPs/HCDR3/HCDR3_195.pdb'
p2068
aa(lp2069
S'HCDR3_196'
p2070
aS'/gpfs/work/m/mfa5147/OptMAVEn_Zika/OptMAVEn2.0/databases/MAPs/HCDR3/HCDR3_196.pdb'
p2071
aa(lp2072
S'HCDR3_197'
p2073
aS'/gpfs/work/m/mfa5147/OptMAVEn_Zika/OptMAVEn2.0/databases/MAPs/HCDR3/HCDR3_197.pdb'
p2074
aa(lp2075
S'HCDR3_198'
p2076
aS'/gpfs/work/m/mfa5147/OptMAVEn_Zika/OptMAVEn2.0/databases/MAPs/HCDR3/HCDR3_198.pdb'
p2077
aa(lp2078
S'HCDR3_64'
p2079
aS'/gpfs/work/m/mfa5147/OptMAVEn_Zika/OptMAVEn2.0/databases/MAPs/HCDR3/HCDR3_64.pdb'
p2080
aa(lp2081
S'HCDR3_2'
p2082
aS'/gpfs/work/m/mfa5147/OptMAVEn_Zika/OptMAVEn2.0/databases/MAPs/HCDR3/HCDR3_2.pdb'
p2083
aa(lp2084
S'HCDR3_61'
p2085
aS'/gpfs/work/m/mfa5147/OptMAVEn_Zika/OptMAVEn2.0/databases/MAPs/HCDR3/HCDR3_61.pdb'
p2086
aa(lp2087
S'HCDR3_200'
p2088
aS'/gpfs/work/m/mfa5147/OptMAVEn_Zika/OptMAVEn2.0/databases/MAPs/HCDR3/HCDR3_200.pdb'
p2089
aa(lp2090
S'HCDR3_201'
p2091
aS'/gpfs/work/m/mfa5147/OptMAVEn_Zika/OptMAVEn2.0/databases/MAPs/HCDR3/HCDR3_201.pdb'
p2092
aa(lp2093
S'HCDR3_202'
p2094
aS'/gpfs/work/m/mfa5147/OptMAVEn_Zika/OptMAVEn2.0/databases/MAPs/HCDR3/HCDR3_202.pdb'
p2095
aa(lp2096
S'HCDR3_6'
p2097
aS'/gpfs/work/m/mfa5147/OptMAVEn_Zika/OptMAVEn2.0/databases/MAPs/HCDR3/HCDR3_6.pdb'
p2098
aa(lp2099
S'HCDR3_60'
p2100
aS'/gpfs/work/m/mfa5147/OptMAVEn_Zika/OptMAVEn2.0/databases/MAPs/HCDR3/HCDR3_60.pdb'
p2101
aa(lp2102
S'HCDR3_205'
p2103
aS'/gpfs/work/m/mfa5147/OptMAVEn_Zika/OptMAVEn2.0/databases/MAPs/HCDR3/HCDR3_205.pdb'
p2104
aa(lp2105
S'HCDR3_206'
p2106
aS'/gpfs/work/m/mfa5147/OptMAVEn_Zika/OptMAVEn2.0/databases/MAPs/HCDR3/HCDR3_206.pdb'
p2107
aa(lp2108
S'HCDR3_207'
p2109
aS'/gpfs/work/m/mfa5147/OptMAVEn_Zika/OptMAVEn2.0/databases/MAPs/HCDR3/HCDR3_207.pdb'
p2110
aa(lp2111
S'HCDR3_55'
p2112
aS'/gpfs/work/m/mfa5147/OptMAVEn_Zika/OptMAVEn2.0/databases/MAPs/HCDR3/HCDR3_55.pdb'
p2113
aa(lp2114
S'HCDR3_58'
p2115
aS'/gpfs/work/m/mfa5147/OptMAVEn_Zika/OptMAVEn2.0/databases/MAPs/HCDR3/HCDR3_58.pdb'
p2116
aa(lp2117
S'HCDR3_59'
p2118
aS'/gpfs/work/m/mfa5147/OptMAVEn_Zika/OptMAVEn2.0/databases/MAPs/HCDR3/HCDR3_59.pdb'
p2119
aa(lp2120
S'HCDR3_210'
p2121
aS'/gpfs/work/m/mfa5147/OptMAVEn_Zika/OptMAVEn2.0/databases/MAPs/HCDR3/HCDR3_210.pdb'
p2122
aa(lp2123
S'HCDR3_211'
p2124
aS'/gpfs/work/m/mfa5147/OptMAVEn_Zika/OptMAVEn2.0/databases/MAPs/HCDR3/HCDR3_211.pdb'
p2125
aa(lp2126
S'HCDR3_5'
p2127
aS'/gpfs/work/m/mfa5147/OptMAVEn_Zika/OptMAVEn2.0/databases/MAPs/HCDR3/HCDR3_5.pdb'
p2128
aa(lp2129
S'HCDR3_213'
p2130
aS'/gpfs/work/m/mfa5147/OptMAVEn_Zika/OptMAVEn2.0/databases/MAPs/HCDR3/HCDR3_213.pdb'
p2131
aa(lp2132
S'HCDR3_214'
p2133
aS'/gpfs/work/m/mfa5147/OptMAVEn_Zika/OptMAVEn2.0/databases/MAPs/HCDR3/HCDR3_214.pdb'
p2134
aa(lp2135
S'HCDR3_45'
p2136
aS'/gpfs/work/m/mfa5147/OptMAVEn_Zika/OptMAVEn2.0/databases/MAPs/HCDR3/HCDR3_45.pdb'
p2137
aa(lp2138
S'HCDR3_49'
p2139
aS'/gpfs/work/m/mfa5147/OptMAVEn_Zika/OptMAVEn2.0/databases/MAPs/HCDR3/HCDR3_49.pdb'
p2140
aa(lp2141
S'HCDR3_217'
p2142
aS'/gpfs/work/m/mfa5147/OptMAVEn_Zika/OptMAVEn2.0/databases/MAPs/HCDR3/HCDR3_217.pdb'
p2143
aa(lp2144
S'HCDR3_43'
p2145
aS'/gpfs/work/m/mfa5147/OptMAVEn_Zika/OptMAVEn2.0/databases/MAPs/HCDR3/HCDR3_43.pdb'
p2146
aa(lp2147
S'HCDR3_219'
p2148
aS'/gpfs/work/m/mfa5147/OptMAVEn_Zika/OptMAVEn2.0/databases/MAPs/HCDR3/HCDR3_219.pdb'
p2149
aa(lp2150
S'HCDR3_22'
p2151
aS'/gpfs/work/m/mfa5147/OptMAVEn_Zika/OptMAVEn2.0/databases/MAPs/HCDR3/HCDR3_22.pdb'
p2152
aa(lp2153
S'HCDR3_220'
p2154
aS'/gpfs/work/m/mfa5147/OptMAVEn_Zika/OptMAVEn2.0/databases/MAPs/HCDR3/HCDR3_220.pdb'
p2155
aa(lp2156
S'HCDR3_422'
p2157
aS'/gpfs/work/m/mfa5147/OptMAVEn_Zika/OptMAVEn2.0/databases/MAPs/HCDR3/HCDR3_422.pdb'
p2158
aa(lp2159
S'HCDR3_425'
p2160
aS'/gpfs/work/m/mfa5147/OptMAVEn_Zika/OptMAVEn2.0/databases/MAPs/HCDR3/HCDR3_425.pdb'
p2161
aa(lp2162
S'HCDR3_223'
p2163
aS'/gpfs/work/m/mfa5147/OptMAVEn_Zika/OptMAVEn2.0/databases/MAPs/HCDR3/HCDR3_223.pdb'
p2164
aa(lp2165
S'HCDR3_420'
p2166
aS'/gpfs/work/m/mfa5147/OptMAVEn_Zika/OptMAVEn2.0/databases/MAPs/HCDR3/HCDR3_420.pdb'
p2167
aa(lp2168
S'HCDR3_225'
p2169
aS'/gpfs/work/m/mfa5147/OptMAVEn_Zika/OptMAVEn2.0/databases/MAPs/HCDR3/HCDR3_225.pdb'
p2170
aa(lp2171
S'HCDR3_417'
p2172
aS'/gpfs/work/m/mfa5147/OptMAVEn_Zika/OptMAVEn2.0/databases/MAPs/HCDR3/HCDR3_417.pdb'
p2173
aa(lp2174
S'HCDR3_418'
p2175
aS'/gpfs/work/m/mfa5147/OptMAVEn_Zika/OptMAVEn2.0/databases/MAPs/HCDR3/HCDR3_418.pdb'
p2176
aa(lp2177
S'HCDR3_228'
p2178
aS'/gpfs/work/m/mfa5147/OptMAVEn_Zika/OptMAVEn2.0/databases/MAPs/HCDR3/HCDR3_228.pdb'
p2179
aa(lp2180
S'HCDR3_41'
p2181
aS'/gpfs/work/m/mfa5147/OptMAVEn_Zika/OptMAVEn2.0/databases/MAPs/HCDR3/HCDR3_41.pdb'
p2182
aa(lp2183
S'HCDR3_415'
p2184
aS'/gpfs/work/m/mfa5147/OptMAVEn_Zika/OptMAVEn2.0/databases/MAPs/HCDR3/HCDR3_415.pdb'
p2185
aa(lp2186
S'HCDR3_230'
p2187
aS'/gpfs/work/m/mfa5147/OptMAVEn_Zika/OptMAVEn2.0/databases/MAPs/HCDR3/HCDR3_230.pdb'
p2188
aa(lp2189
S'HCDR3_231'
p2190
aS'/gpfs/work/m/mfa5147/OptMAVEn_Zika/OptMAVEn2.0/databases/MAPs/HCDR3/HCDR3_231.pdb'
p2191
aa(lp2192
S'HCDR3_408'
p2193
aS'/gpfs/work/m/mfa5147/OptMAVEn_Zika/OptMAVEn2.0/databases/MAPs/HCDR3/HCDR3_408.pdb'
p2194
aa(lp2195
S'HCDR3_233'
p2196
aS'/gpfs/work/m/mfa5147/OptMAVEn_Zika/OptMAVEn2.0/databases/MAPs/HCDR3/HCDR3_233.pdb'
p2197
aa(lp2198
S'HCDR3_234'
p2199
aS'/gpfs/work/m/mfa5147/OptMAVEn_Zika/OptMAVEn2.0/databases/MAPs/HCDR3/HCDR3_234.pdb'
p2200
aa(lp2201
S'HCDR3_235'
p2202
aS'/gpfs/work/m/mfa5147/OptMAVEn_Zika/OptMAVEn2.0/databases/MAPs/HCDR3/HCDR3_235.pdb'
p2203
aa(lp2204
S'HCDR3_236'
p2205
aS'/gpfs/work/m/mfa5147/OptMAVEn_Zika/OptMAVEn2.0/databases/MAPs/HCDR3/HCDR3_236.pdb'
p2206
aa(lp2207
S'HCDR3_237'
p2208
aS'/gpfs/work/m/mfa5147/OptMAVEn_Zika/OptMAVEn2.0/databases/MAPs/HCDR3/HCDR3_237.pdb'
p2209
aa(lp2210
S'HCDR3_403'
p2211
aS'/gpfs/work/m/mfa5147/OptMAVEn_Zika/OptMAVEn2.0/databases/MAPs/HCDR3/HCDR3_403.pdb'
p2212
aa(lp2213
S'HCDR3_407'
p2214
aS'/gpfs/work/m/mfa5147/OptMAVEn_Zika/OptMAVEn2.0/databases/MAPs/HCDR3/HCDR3_407.pdb'
p2215
aa(lp2216
S'HCDR3_24'
p2217
aS'/gpfs/work/m/mfa5147/OptMAVEn_Zika/OptMAVEn2.0/databases/MAPs/HCDR3/HCDR3_24.pdb'
p2218
aa(lp2219
S'HCDR3_391'
p2220
aS'/gpfs/work/m/mfa5147/OptMAVEn_Zika/OptMAVEn2.0/databases/MAPs/HCDR3/HCDR3_391.pdb'
p2221
aa(lp2222
S'HCDR3_392'
p2223
aS'/gpfs/work/m/mfa5147/OptMAVEn_Zika/OptMAVEn2.0/databases/MAPs/HCDR3/HCDR3_392.pdb'
p2224
aa(lp2225
S'HCDR3_395'
p2226
aS'/gpfs/work/m/mfa5147/OptMAVEn_Zika/OptMAVEn2.0/databases/MAPs/HCDR3/HCDR3_395.pdb'
p2227
aa(lp2228
S'HCDR3_396'
p2229
aS'/gpfs/work/m/mfa5147/OptMAVEn_Zika/OptMAVEn2.0/databases/MAPs/HCDR3/HCDR3_396.pdb'
p2230
aa(lp2231
S'HCDR3_399'
p2232
aS'/gpfs/work/m/mfa5147/OptMAVEn_Zika/OptMAVEn2.0/databases/MAPs/HCDR3/HCDR3_399.pdb'
p2233
aa(lp2234
S'HCDR3_401'
p2235
aS'/gpfs/work/m/mfa5147/OptMAVEn_Zika/OptMAVEn2.0/databases/MAPs/HCDR3/HCDR3_401.pdb'
p2236
aa(lp2237
S'HCDR3_246'
p2238
aS'/gpfs/work/m/mfa5147/OptMAVEn_Zika/OptMAVEn2.0/databases/MAPs/HCDR3/HCDR3_246.pdb'
p2239
aa(lp2240
S'HCDR3_247'
p2241
aS'/gpfs/work/m/mfa5147/OptMAVEn_Zika/OptMAVEn2.0/databases/MAPs/HCDR3/HCDR3_247.pdb'
p2242
aa(lp2243
S'HCDR3_389'
p2244
aS'/gpfs/work/m/mfa5147/OptMAVEn_Zika/OptMAVEn2.0/databases/MAPs/HCDR3/HCDR3_389.pdb'
p2245
aa(lp2246
S'HCDR3_39'
p2247
aS'/gpfs/work/m/mfa5147/OptMAVEn_Zika/OptMAVEn2.0/databases/MAPs/HCDR3/HCDR3_39.pdb'
p2248
aa(lp2249
S'HCDR3_25'
p2250
aS'/gpfs/work/m/mfa5147/OptMAVEn_Zika/OptMAVEn2.0/databases/MAPs/HCDR3/HCDR3_25.pdb'
p2251
aa(lp2252
S'HCDR3_250'
p2253
aS'/gpfs/work/m/mfa5147/OptMAVEn_Zika/OptMAVEn2.0/databases/MAPs/HCDR3/HCDR3_250.pdb'
p2254
aa(lp2255
S'HCDR3_384'
p2256
aS'/gpfs/work/m/mfa5147/OptMAVEn_Zika/OptMAVEn2.0/databases/MAPs/HCDR3/HCDR3_384.pdb'
p2257
aa(lp2258
S'HCDR3_385'
p2259
aS'/gpfs/work/m/mfa5147/OptMAVEn_Zika/OptMAVEn2.0/databases/MAPs/HCDR3/HCDR3_385.pdb'
p2260
aa(lp2261
S'HCDR3_253'
p2262
aS'/gpfs/work/m/mfa5147/OptMAVEn_Zika/OptMAVEn2.0/databases/MAPs/HCDR3/HCDR3_253.pdb'
p2263
aa(lp2264
S'HCDR3_254'
p2265
aS'/gpfs/work/m/mfa5147/OptMAVEn_Zika/OptMAVEn2.0/databases/MAPs/HCDR3/HCDR3_254.pdb'
p2266
aa(lp2267
S'HCDR3_255'
p2268
aS'/gpfs/work/m/mfa5147/OptMAVEn_Zika/OptMAVEn2.0/databases/MAPs/HCDR3/HCDR3_255.pdb'
p2269
aa(lp2270
S'HCDR3_377'
p2271
aS'/gpfs/work/m/mfa5147/OptMAVEn_Zika/OptMAVEn2.0/databases/MAPs/HCDR3/HCDR3_377.pdb'
p2272
aa(lp2273
S'HCDR3_379'
p2274
aS'/gpfs/work/m/mfa5147/OptMAVEn_Zika/OptMAVEn2.0/databases/MAPs/HCDR3/HCDR3_379.pdb'
p2275
aa(lp2276
S'HCDR3_380'
p2277
aS'/gpfs/work/m/mfa5147/OptMAVEn_Zika/OptMAVEn2.0/databases/MAPs/HCDR3/HCDR3_380.pdb'
p2278
aa(lp2279
S'HCDR3_259'
p2280
aS'/gpfs/work/m/mfa5147/OptMAVEn_Zika/OptMAVEn2.0/databases/MAPs/HCDR3/HCDR3_259.pdb'
p2281
aa(lp2282
S'HCDR3_376'
p2283
aS'/gpfs/work/m/mfa5147/OptMAVEn_Zika/OptMAVEn2.0/databases/MAPs/HCDR3/HCDR3_376.pdb'
p2284
aa(lp2285
S'HCDR3_260'
p2286
aS'/gpfs/work/m/mfa5147/OptMAVEn_Zika/OptMAVEn2.0/databases/MAPs/HCDR3/HCDR3_260.pdb'
p2287
aa(lp2288
S'HCDR3_261'
p2289
aS'/gpfs/work/m/mfa5147/OptMAVEn_Zika/OptMAVEn2.0/databases/MAPs/HCDR3/HCDR3_261.pdb'
p2290
aa(lp2291
S'HCDR3_262'
p2292
aS'/gpfs/work/m/mfa5147/OptMAVEn_Zika/OptMAVEn2.0/databases/MAPs/HCDR3/HCDR3_262.pdb'
p2293
aa(lp2294
S'HCDR3_372'
p2295
aS'/gpfs/work/m/mfa5147/OptMAVEn_Zika/OptMAVEn2.0/databases/MAPs/HCDR3/HCDR3_372.pdb'
p2296
aa(lp2297
S'HCDR3_373'
p2298
aS'/gpfs/work/m/mfa5147/OptMAVEn_Zika/OptMAVEn2.0/databases/MAPs/HCDR3/HCDR3_373.pdb'
p2299
aa(lp2300
S'HCDR3_265'
p2301
aS'/gpfs/work/m/mfa5147/OptMAVEn_Zika/OptMAVEn2.0/databases/MAPs/HCDR3/HCDR3_265.pdb'
p2302
aa(lp2303
S'HCDR3_266'
p2304
aS'/gpfs/work/m/mfa5147/OptMAVEn_Zika/OptMAVEn2.0/databases/MAPs/HCDR3/HCDR3_266.pdb'
p2305
aa(lp2306
S'HCDR3_267'
p2307
aS'/gpfs/work/m/mfa5147/OptMAVEn_Zika/OptMAVEn2.0/databases/MAPs/HCDR3/HCDR3_267.pdb'
p2308
aa(lp2309
S'HCDR3_371'
p2310
aS'/gpfs/work/m/mfa5147/OptMAVEn_Zika/OptMAVEn2.0/databases/MAPs/HCDR3/HCDR3_371.pdb'
p2311
aa(lp2312
S'HCDR3_269'
p2313
aS'/gpfs/work/m/mfa5147/OptMAVEn_Zika/OptMAVEn2.0/databases/MAPs/HCDR3/HCDR3_269.pdb'
p2314
aa(lp2315
S'HCDR3_360'
p2316
aS'/gpfs/work/m/mfa5147/OptMAVEn_Zika/OptMAVEn2.0/databases/MAPs/HCDR3/HCDR3_360.pdb'
p2317
aa(lp2318
S'HCDR3_365'
p2319
aS'/gpfs/work/m/mfa5147/OptMAVEn_Zika/OptMAVEn2.0/databases/MAPs/HCDR3/HCDR3_365.pdb'
p2320
aa(lp2321
S'HCDR3_366'
p2322
aS'/gpfs/work/m/mfa5147/OptMAVEn_Zika/OptMAVEn2.0/databases/MAPs/HCDR3/HCDR3_366.pdb'
p2323
aa(lp2324
S'HCDR3_37'
p2325
aS'/gpfs/work/m/mfa5147/OptMAVEn_Zika/OptMAVEn2.0/databases/MAPs/HCDR3/HCDR3_37.pdb'
p2326
aa(lp2327
S'HCDR3_273'
p2328
aS'/gpfs/work/m/mfa5147/OptMAVEn_Zika/OptMAVEn2.0/databases/MAPs/HCDR3/HCDR3_273.pdb'
p2329
aa(lp2330
S'HCDR3_274'
p2331
aS'/gpfs/work/m/mfa5147/OptMAVEn_Zika/OptMAVEn2.0/databases/MAPs/HCDR3/HCDR3_274.pdb'
p2332
aa(lp2333
S'HCDR3_357'
p2334
aS'/gpfs/work/m/mfa5147/OptMAVEn_Zika/OptMAVEn2.0/databases/MAPs/HCDR3/HCDR3_357.pdb'
p2335
aa(lp2336
S'HCDR3_358'
p2337
aS'/gpfs/work/m/mfa5147/OptMAVEn_Zika/OptMAVEn2.0/databases/MAPs/HCDR3/HCDR3_358.pdb'
p2338
aa(lp2339
S'HCDR3_359'
p2340
aS'/gpfs/work/m/mfa5147/OptMAVEn_Zika/OptMAVEn2.0/databases/MAPs/HCDR3/HCDR3_359.pdb'
p2341
aa(lp2342
S'HCDR3_278'
p2343
aS'/gpfs/work/m/mfa5147/OptMAVEn_Zika/OptMAVEn2.0/databases/MAPs/HCDR3/HCDR3_278.pdb'
p2344
aa(lp2345
S'HCDR3_279'
p2346
aS'/gpfs/work/m/mfa5147/OptMAVEn_Zika/OptMAVEn2.0/databases/MAPs/HCDR3/HCDR3_279.pdb'
p2347
aa(lp2348
S'HCDR3_356'
p2349
aS'/gpfs/work/m/mfa5147/OptMAVEn_Zika/OptMAVEn2.0/databases/MAPs/HCDR3/HCDR3_356.pdb'
p2350
aa(lp2351
S'HCDR3_280'
p2352
aS'/gpfs/work/m/mfa5147/OptMAVEn_Zika/OptMAVEn2.0/databases/MAPs/HCDR3/HCDR3_280.pdb'
p2353
aa(lp2354
S'HCDR3_281'
p2355
aS'/gpfs/work/m/mfa5147/OptMAVEn_Zika/OptMAVEn2.0/databases/MAPs/HCDR3/HCDR3_281.pdb'
p2356
aa(lp2357
S'HCDR3_282'
p2358
aS'/gpfs/work/m/mfa5147/OptMAVEn_Zika/OptMAVEn2.0/databases/MAPs/HCDR3/HCDR3_282.pdb'
p2359
aa(lp2360
S'HCDR3_283'
p2361
aS'/gpfs/work/m/mfa5147/OptMAVEn_Zika/OptMAVEn2.0/databases/MAPs/HCDR3/HCDR3_283.pdb'
p2362
aa(lp2363
S'HCDR3_284'
p2364
aS'/gpfs/work/m/mfa5147/OptMAVEn_Zika/OptMAVEn2.0/databases/MAPs/HCDR3/HCDR3_284.pdb'
p2365
aa(lp2366
S'HCDR3_285'
p2367
aS'/gpfs/work/m/mfa5147/OptMAVEn_Zika/OptMAVEn2.0/databases/MAPs/HCDR3/HCDR3_285.pdb'
p2368
aa(lp2369
S'HCDR3_347'
p2370
aS'/gpfs/work/m/mfa5147/OptMAVEn_Zika/OptMAVEn2.0/databases/MAPs/HCDR3/HCDR3_347.pdb'
p2371
aa(lp2372
S'HCDR3_349'
p2373
aS'/gpfs/work/m/mfa5147/OptMAVEn_Zika/OptMAVEn2.0/databases/MAPs/HCDR3/HCDR3_349.pdb'
p2374
aa(lp2375
S'HCDR3_350'
p2376
aS'/gpfs/work/m/mfa5147/OptMAVEn_Zika/OptMAVEn2.0/databases/MAPs/HCDR3/HCDR3_350.pdb'
p2377
aa(lp2378
S'HCDR3_289'
p2379
aS'/gpfs/work/m/mfa5147/OptMAVEn_Zika/OptMAVEn2.0/databases/MAPs/HCDR3/HCDR3_289.pdb'
p2380
aa(lp2381
S'HCDR3_29'
p2382
aS'/gpfs/work/m/mfa5147/OptMAVEn_Zika/OptMAVEn2.0/databases/MAPs/HCDR3/HCDR3_29.pdb'
p2383
aa(lp2384
S'HCDR3_290'
p2385
aS'/gpfs/work/m/mfa5147/OptMAVEn_Zika/OptMAVEn2.0/databases/MAPs/HCDR3/HCDR3_290.pdb'
p2386
aa(lp2387
S'HCDR3_345'
p2388
aS'/gpfs/work/m/mfa5147/OptMAVEn_Zika/OptMAVEn2.0/databases/MAPs/HCDR3/HCDR3_345.pdb'
p2389
aa(lp2390
S'HCDR3_292'
p2391
aS'/gpfs/work/m/mfa5147/OptMAVEn_Zika/OptMAVEn2.0/databases/MAPs/HCDR3/HCDR3_292.pdb'
p2392
aa(lp2393
S'HCDR3_293'
p2394
aS'/gpfs/work/m/mfa5147/OptMAVEn_Zika/OptMAVEn2.0/databases/MAPs/HCDR3/HCDR3_293.pdb'
p2395
aa(lp2396
S'HCDR3_294'
p2397
aS'/gpfs/work/m/mfa5147/OptMAVEn_Zika/OptMAVEn2.0/databases/MAPs/HCDR3/HCDR3_294.pdb'
p2398
aa(lp2399
S'HCDR3_343'
p2400
aS'/gpfs/work/m/mfa5147/OptMAVEn_Zika/OptMAVEn2.0/databases/MAPs/HCDR3/HCDR3_343.pdb'
p2401
aa(lp2402
S'HCDR3_296'
p2403
aS'/gpfs/work/m/mfa5147/OptMAVEn_Zika/OptMAVEn2.0/databases/MAPs/HCDR3/HCDR3_296.pdb'
p2404
aa(lp2405
S'HCDR3_297'
p2406
aS'/gpfs/work/m/mfa5147/OptMAVEn_Zika/OptMAVEn2.0/databases/MAPs/HCDR3/HCDR3_297.pdb'
p2407
aa(lp2408
S'HCDR3_33'
p2409
aS'/gpfs/work/m/mfa5147/OptMAVEn_Zika/OptMAVEn2.0/databases/MAPs/HCDR3/HCDR3_33.pdb'
p2410
aa(lp2411
S'HCDR3_332'
p2412
aS'/gpfs/work/m/mfa5147/OptMAVEn_Zika/OptMAVEn2.0/databases/MAPs/HCDR3/HCDR3_332.pdb'
p2413
aa(lp2414
S'HCDR3_334'
p2415
aS'/gpfs/work/m/mfa5147/OptMAVEn_Zika/OptMAVEn2.0/databases/MAPs/HCDR3/HCDR3_334.pdb'
p2416
aa(lp2417
S'HCDR3_340'
p2418
aS'/gpfs/work/m/mfa5147/OptMAVEn_Zika/OptMAVEn2.0/databases/MAPs/HCDR3/HCDR3_340.pdb'
p2419
aa(lp2420
S'HCDR3_300'
p2421
aS'/gpfs/work/m/mfa5147/OptMAVEn_Zika/OptMAVEn2.0/databases/MAPs/HCDR3/HCDR3_300.pdb'
p2422
aa(lp2423
S'HCDR3_301'
p2424
aS'/gpfs/work/m/mfa5147/OptMAVEn_Zika/OptMAVEn2.0/databases/MAPs/HCDR3/HCDR3_301.pdb'
p2425
aa(lp2426
S'HCDR3_321'
p2427
aS'/gpfs/work/m/mfa5147/OptMAVEn_Zika/OptMAVEn2.0/databases/MAPs/HCDR3/HCDR3_321.pdb'
p2428
aa(lp2429
S'HCDR3_322'
p2430
aS'/gpfs/work/m/mfa5147/OptMAVEn_Zika/OptMAVEn2.0/databases/MAPs/HCDR3/HCDR3_322.pdb'
p2431
aa(lp2432
S'HCDR3_324'
p2433
aS'/gpfs/work/m/mfa5147/OptMAVEn_Zika/OptMAVEn2.0/databases/MAPs/HCDR3/HCDR3_324.pdb'
p2434
aa(lp2435
S'HCDR3_325'
p2436
aS'/gpfs/work/m/mfa5147/OptMAVEn_Zika/OptMAVEn2.0/databases/MAPs/HCDR3/HCDR3_325.pdb'
p2437
aa(lp2438
S'HCDR3_327'
p2439
aS'/gpfs/work/m/mfa5147/OptMAVEn_Zika/OptMAVEn2.0/databases/MAPs/HCDR3/HCDR3_327.pdb'
p2440
aa(lp2441
S'HCDR3_329'
p2442
aS'/gpfs/work/m/mfa5147/OptMAVEn_Zika/OptMAVEn2.0/databases/MAPs/HCDR3/HCDR3_329.pdb'
p2443
aa(lp2444
S'HCDR3_308'
p2445
aS'/gpfs/work/m/mfa5147/OptMAVEn_Zika/OptMAVEn2.0/databases/MAPs/HCDR3/HCDR3_308.pdb'
p2446
aa(lp2447
S'HCDR3_32'
p2448
aS'/gpfs/work/m/mfa5147/OptMAVEn_Zika/OptMAVEn2.0/databases/MAPs/HCDR3/HCDR3_32.pdb'
p2449
aa(lp2450
S'HCDR3_31'
p2451
aS'/gpfs/work/m/mfa5147/OptMAVEn_Zika/OptMAVEn2.0/databases/MAPs/HCDR3/HCDR3_31.pdb'
p2452
aa(lp2453
S'HCDR3_310'
p2454
aS'/gpfs/work/m/mfa5147/OptMAVEn_Zika/OptMAVEn2.0/databases/MAPs/HCDR3/HCDR3_310.pdb'
p2455
aa(lp2456
S'HCDR3_313'
p2457
aS'/gpfs/work/m/mfa5147/OptMAVEn_Zika/OptMAVEn2.0/databases/MAPs/HCDR3/HCDR3_313.pdb'
p2458
aa(lp2459
S'HCDR3_319'
p2460
aS'/gpfs/work/m/mfa5147/OptMAVEn_Zika/OptMAVEn2.0/databases/MAPs/HCDR3/HCDR3_319.pdb'
p2461
aatRp2462
sS'KV'
p2463
g3
((lp2464
(lp2465
S'KV_1'
p2466
aS'/gpfs/work/m/mfa5147/OptMAVEn_Zika/OptMAVEn2.0/databases/MAPs/KV/KV_1.pdb'
p2467
aa(lp2468
S'KV_10'
p2469
aS'/gpfs/work/m/mfa5147/OptMAVEn_Zika/OptMAVEn2.0/databases/MAPs/KV/KV_10.pdb'
p2470
aa(lp2471
S'KV_11'
p2472
aS'/gpfs/work/m/mfa5147/OptMAVEn_Zika/OptMAVEn2.0/databases/MAPs/KV/KV_11.pdb'
p2473
aa(lp2474
S'KV_12'
p2475
aS'/gpfs/work/m/mfa5147/OptMAVEn_Zika/OptMAVEn2.0/databases/MAPs/KV/KV_12.pdb'
p2476
aa(lp2477
S'KV_13'
p2478
aS'/gpfs/work/m/mfa5147/OptMAVEn_Zika/OptMAVEn2.0/databases/MAPs/KV/KV_13.pdb'
p2479
aa(lp2480
S'KV_14'
p2481
aS'/gpfs/work/m/mfa5147/OptMAVEn_Zika/OptMAVEn2.0/databases/MAPs/KV/KV_14.pdb'
p2482
aa(lp2483
S'KV_15'
p2484
aS'/gpfs/work/m/mfa5147/OptMAVEn_Zika/OptMAVEn2.0/databases/MAPs/KV/KV_15.pdb'
p2485
aa(lp2486
S'KV_16'
p2487
aS'/gpfs/work/m/mfa5147/OptMAVEn_Zika/OptMAVEn2.0/databases/MAPs/KV/KV_16.pdb'
p2488
aa(lp2489
S'KV_17'
p2490
aS'/gpfs/work/m/mfa5147/OptMAVEn_Zika/OptMAVEn2.0/databases/MAPs/KV/KV_17.pdb'
p2491
aa(lp2492
S'KV_18'
p2493
aS'/gpfs/work/m/mfa5147/OptMAVEn_Zika/OptMAVEn2.0/databases/MAPs/KV/KV_18.pdb'
p2494
aa(lp2495
S'KV_19'
p2496
aS'/gpfs/work/m/mfa5147/OptMAVEn_Zika/OptMAVEn2.0/databases/MAPs/KV/KV_19.pdb'
p2497
aa(lp2498
S'KV_2'
p2499
aS'/gpfs/work/m/mfa5147/OptMAVEn_Zika/OptMAVEn2.0/databases/MAPs/KV/KV_2.pdb'
p2500
aa(lp2501
S'KV_20'
p2502
aS'/gpfs/work/m/mfa5147/OptMAVEn_Zika/OptMAVEn2.0/databases/MAPs/KV/KV_20.pdb'
p2503
aa(lp2504
S'KV_21'
p2505
aS'/gpfs/work/m/mfa5147/OptMAVEn_Zika/OptMAVEn2.0/databases/MAPs/KV/KV_21.pdb'
p2506
aa(lp2507
S'KV_22'
p2508
aS'/gpfs/work/m/mfa5147/OptMAVEn_Zika/OptMAVEn2.0/databases/MAPs/KV/KV_22.pdb'
p2509
aa(lp2510
S'KV_23'
p2511
aS'/gpfs/work/m/mfa5147/OptMAVEn_Zika/OptMAVEn2.0/databases/MAPs/KV/KV_23.pdb'
p2512
aa(lp2513
S'KV_24'
p2514
aS'/gpfs/work/m/mfa5147/OptMAVEn_Zika/OptMAVEn2.0/databases/MAPs/KV/KV_24.pdb'
p2515
aa(lp2516
S'KV_25'
p2517
aS'/gpfs/work/m/mfa5147/OptMAVEn_Zika/OptMAVEn2.0/databases/MAPs/KV/KV_25.pdb'
p2518
aa(lp2519
S'KV_27'
p2520
aS'/gpfs/work/m/mfa5147/OptMAVEn_Zika/OptMAVEn2.0/databases/MAPs/KV/KV_27.pdb'
p2521
aa(lp2522
S'KV_28'
p2523
aS'/gpfs/work/m/mfa5147/OptMAVEn_Zika/OptMAVEn2.0/databases/MAPs/KV/KV_28.pdb'
p2524
aa(lp2525
S'KV_29'
p2526
aS'/gpfs/work/m/mfa5147/OptMAVEn_Zika/OptMAVEn2.0/databases/MAPs/KV/KV_29.pdb'
p2527
aa(lp2528
S'KV_30'
p2529
aS'/gpfs/work/m/mfa5147/OptMAVEn_Zika/OptMAVEn2.0/databases/MAPs/KV/KV_30.pdb'
p2530
aa(lp2531
S'KV_31'
p2532
aS'/gpfs/work/m/mfa5147/OptMAVEn_Zika/OptMAVEn2.0/databases/MAPs/KV/KV_31.pdb'
p2533
aa(lp2534
S'KV_32'
p2535
aS'/gpfs/work/m/mfa5147/OptMAVEn_Zika/OptMAVEn2.0/databases/MAPs/KV/KV_32.pdb'
p2536
aa(lp2537
S'KV_33'
p2538
aS'/gpfs/work/m/mfa5147/OptMAVEn_Zika/OptMAVEn2.0/databases/MAPs/KV/KV_33.pdb'
p2539
aa(lp2540
S'KV_34'
p2541
aS'/gpfs/work/m/mfa5147/OptMAVEn_Zika/OptMAVEn2.0/databases/MAPs/KV/KV_34.pdb'
p2542
aa(lp2543
S'KV_35'
p2544
aS'/gpfs/work/m/mfa5147/OptMAVEn_Zika/OptMAVEn2.0/databases/MAPs/KV/KV_35.pdb'
p2545
aa(lp2546
S'KV_36'
p2547
aS'/gpfs/work/m/mfa5147/OptMAVEn_Zika/OptMAVEn2.0/databases/MAPs/KV/KV_36.pdb'
p2548
aa(lp2549
S'KV_37'
p2550
aS'/gpfs/work/m/mfa5147/OptMAVEn_Zika/OptMAVEn2.0/databases/MAPs/KV/KV_37.pdb'
p2551
aa(lp2552
S'KV_38'
p2553
aS'/gpfs/work/m/mfa5147/OptMAVEn_Zika/OptMAVEn2.0/databases/MAPs/KV/KV_38.pdb'
p2554
aa(lp2555
S'KV_39'
p2556
aS'/gpfs/work/m/mfa5147/OptMAVEn_Zika/OptMAVEn2.0/databases/MAPs/KV/KV_39.pdb'
p2557
aa(lp2558
S'KV_4'
p2559
aS'/gpfs/work/m/mfa5147/OptMAVEn_Zika/OptMAVEn2.0/databases/MAPs/KV/KV_4.pdb'
p2560
aa(lp2561
S'KV_40'
p2562
aS'/gpfs/work/m/mfa5147/OptMAVEn_Zika/OptMAVEn2.0/databases/MAPs/KV/KV_40.pdb'
p2563
aa(lp2564
S'KV_41'
p2565
aS'/gpfs/work/m/mfa5147/OptMAVEn_Zika/OptMAVEn2.0/databases/MAPs/KV/KV_41.pdb'
p2566
aa(lp2567
S'KV_43'
p2568
aS'/gpfs/work/m/mfa5147/OptMAVEn_Zika/OptMAVEn2.0/databases/MAPs/KV/KV_43.pdb'
p2569
aa(lp2570
S'KV_44'
p2571
aS'/gpfs/work/m/mfa5147/OptMAVEn_Zika/OptMAVEn2.0/databases/MAPs/KV/KV_44.pdb'
p2572
aa(lp2573
S'KV_45'
p2574
aS'/gpfs/work/m/mfa5147/OptMAVEn_Zika/OptMAVEn2.0/databases/MAPs/KV/KV_45.pdb'
p2575
aa(lp2576
S'KV_46'
p2577
aS'/gpfs/work/m/mfa5147/OptMAVEn_Zika/OptMAVEn2.0/databases/MAPs/KV/KV_46.pdb'
p2578
aa(lp2579
S'KV_47'
p2580
aS'/gpfs/work/m/mfa5147/OptMAVEn_Zika/OptMAVEn2.0/databases/MAPs/KV/KV_47.pdb'
p2581
aa(lp2582
S'KV_48'
p2583
aS'/gpfs/work/m/mfa5147/OptMAVEn_Zika/OptMAVEn2.0/databases/MAPs/KV/KV_48.pdb'
p2584
aa(lp2585
S'KV_49'
p2586
aS'/gpfs/work/m/mfa5147/OptMAVEn_Zika/OptMAVEn2.0/databases/MAPs/KV/KV_49.pdb'
p2587
aa(lp2588
S'KV_5'
p2589
aS'/gpfs/work/m/mfa5147/OptMAVEn_Zika/OptMAVEn2.0/databases/MAPs/KV/KV_5.pdb'
p2590
aa(lp2591
S'KV_50'
p2592
aS'/gpfs/work/m/mfa5147/OptMAVEn_Zika/OptMAVEn2.0/databases/MAPs/KV/KV_50.pdb'
p2593
aa(lp2594
S'KV_51'
p2595
aS'/gpfs/work/m/mfa5147/OptMAVEn_Zika/OptMAVEn2.0/databases/MAPs/KV/KV_51.pdb'
p2596
aa(lp2597
S'KV_52'
p2598
aS'/gpfs/work/m/mfa5147/OptMAVEn_Zika/OptMAVEn2.0/databases/MAPs/KV/KV_52.pdb'
p2599
aa(lp2600
S'KV_53'
p2601
aS'/gpfs/work/m/mfa5147/OptMAVEn_Zika/OptMAVEn2.0/databases/MAPs/KV/KV_53.pdb'
p2602
aa(lp2603
S'KV_54'
p2604
aS'/gpfs/work/m/mfa5147/OptMAVEn_Zika/OptMAVEn2.0/databases/MAPs/KV/KV_54.pdb'
p2605
aa(lp2606
S'KV_55'
p2607
aS'/gpfs/work/m/mfa5147/OptMAVEn_Zika/OptMAVEn2.0/databases/MAPs/KV/KV_55.pdb'
p2608
aa(lp2609
S'KV_56'
p2610
aS'/gpfs/work/m/mfa5147/OptMAVEn_Zika/OptMAVEn2.0/databases/MAPs/KV/KV_56.pdb'
p2611
aa(lp2612
S'KV_57'
p2613
aS'/gpfs/work/m/mfa5147/OptMAVEn_Zika/OptMAVEn2.0/databases/MAPs/KV/KV_57.pdb'
p2614
aa(lp2615
S'KV_58'
p2616
aS'/gpfs/work/m/mfa5147/OptMAVEn_Zika/OptMAVEn2.0/databases/MAPs/KV/KV_58.pdb'
p2617
aa(lp2618
S'KV_59'
p2619
aS'/gpfs/work/m/mfa5147/OptMAVEn_Zika/OptMAVEn2.0/databases/MAPs/KV/KV_59.pdb'
p2620
aa(lp2621
S'KV_6'
p2622
aS'/gpfs/work/m/mfa5147/OptMAVEn_Zika/OptMAVEn2.0/databases/MAPs/KV/KV_6.pdb'
p2623
aa(lp2624
S'KV_60'
p2625
aS'/gpfs/work/m/mfa5147/OptMAVEn_Zika/OptMAVEn2.0/databases/MAPs/KV/KV_60.pdb'
p2626
aa(lp2627
S'KV_61'
p2628
aS'/gpfs/work/m/mfa5147/OptMAVEn_Zika/OptMAVEn2.0/databases/MAPs/KV/KV_61.pdb'
p2629
aa(lp2630
S'KV_62'
p2631
aS'/gpfs/work/m/mfa5147/OptMAVEn_Zika/OptMAVEn2.0/databases/MAPs/KV/KV_62.pdb'
p2632
aa(lp2633
S'KV_63'
p2634
aS'/gpfs/work/m/mfa5147/OptMAVEn_Zika/OptMAVEn2.0/databases/MAPs/KV/KV_63.pdb'
p2635
aa(lp2636
S'KV_64'
p2637
aS'/gpfs/work/m/mfa5147/OptMAVEn_Zika/OptMAVEn2.0/databases/MAPs/KV/KV_64.pdb'
p2638
aa(lp2639
S'KV_65'
p2640
aS'/gpfs/work/m/mfa5147/OptMAVEn_Zika/OptMAVEn2.0/databases/MAPs/KV/KV_65.pdb'
p2641
aa(lp2642
S'KV_66'
p2643
aS'/gpfs/work/m/mfa5147/OptMAVEn_Zika/OptMAVEn2.0/databases/MAPs/KV/KV_66.pdb'
p2644
aa(lp2645
S'KV_67'
p2646
aS'/gpfs/work/m/mfa5147/OptMAVEn_Zika/OptMAVEn2.0/databases/MAPs/KV/KV_67.pdb'
p2647
aa(lp2648
S'KV_7'
p2649
aS'/gpfs/work/m/mfa5147/OptMAVEn_Zika/OptMAVEn2.0/databases/MAPs/KV/KV_7.pdb'
p2650
aa(lp2651
S'KV_8'
p2652
aS'/gpfs/work/m/mfa5147/OptMAVEn_Zika/OptMAVEn2.0/databases/MAPs/KV/KV_8.pdb'
p2653
aa(lp2654
S'KV_9'
p2655
aS'/gpfs/work/m/mfa5147/OptMAVEn_Zika/OptMAVEn2.0/databases/MAPs/KV/KV_9.pdb'
p2656
aatRp2657
sS'LJ'
p2658
g3
((lp2659
(lp2660
S'LJ_1'
p2661
aS'/gpfs/work/m/mfa5147/OptMAVEn_Zika/OptMAVEn2.0/databases/MAPs/LJ/LJ_1.pdb'
p2662
aa(lp2663
S'LJ_2'
p2664
aS'/gpfs/work/m/mfa5147/OptMAVEn_Zika/OptMAVEn2.0/databases/MAPs/LJ/LJ_2.pdb'
p2665
aa(lp2666
S'LJ_3'
p2667
aS'/gpfs/work/m/mfa5147/OptMAVEn_Zika/OptMAVEn2.0/databases/MAPs/LJ/LJ_3.pdb'
p2668
aa(lp2669
S'LJ_4'
p2670
aS'/gpfs/work/m/mfa5147/OptMAVEn_Zika/OptMAVEn2.0/databases/MAPs/LJ/LJ_4.pdb'
p2671
aa(lp2672
S'LJ_5'
p2673
aS'/gpfs/work/m/mfa5147/OptMAVEn_Zika/OptMAVEn2.0/databases/MAPs/LJ/LJ_5.pdb'
p2674
aa(lp2675
S'LJ_6'
p2676
aS'/gpfs/work/m/mfa5147/OptMAVEn_Zika/OptMAVEn2.0/databases/MAPs/LJ/LJ_6.pdb'
p2677
aa(lp2678
S'LJ_7'
p2679
aS'/gpfs/work/m/mfa5147/OptMAVEn_Zika/OptMAVEn2.0/databases/MAPs/LJ/LJ_7.pdb'
p2680
aatRp2681
sS'LCDR3'
p2682
g3
((lp2683
(lp2684
S'LCDR3_1'
p2685
aS'/gpfs/work/m/mfa5147/OptMAVEn_Zika/OptMAVEn2.0/databases/MAPs/LCDR3/LCDR3_1.pdb'
p2686
aa(lp2687
S'LCDR3_10'
p2688
aS'/gpfs/work/m/mfa5147/OptMAVEn_Zika/OptMAVEn2.0/databases/MAPs/LCDR3/LCDR3_10.pdb'
p2689
aa(lp2690
S'LCDR3_11'
p2691
aS'/gpfs/work/m/mfa5147/OptMAVEn_Zika/OptMAVEn2.0/databases/MAPs/LCDR3/LCDR3_11.pdb'
p2692
aa(lp2693
S'LCDR3_12'
p2694
aS'/gpfs/work/m/mfa5147/OptMAVEn_Zika/OptMAVEn2.0/databases/MAPs/LCDR3/LCDR3_12.pdb'
p2695
aa(lp2696
S'LCDR3_13'
p2697
aS'/gpfs/work/m/mfa5147/OptMAVEn_Zika/OptMAVEn2.0/databases/MAPs/LCDR3/LCDR3_13.pdb'
p2698
aa(lp2699
S'LCDR3_14'
p2700
aS'/gpfs/work/m/mfa5147/OptMAVEn_Zika/OptMAVEn2.0/databases/MAPs/LCDR3/LCDR3_14.pdb'
p2701
aa(lp2702
S'LCDR3_15'
p2703
aS'/gpfs/work/m/mfa5147/OptMAVEn_Zika/OptMAVEn2.0/databases/MAPs/LCDR3/LCDR3_15.pdb'
p2704
aa(lp2705
S'LCDR3_16'
p2706
aS'/gpfs/work/m/mfa5147/OptMAVEn_Zika/OptMAVEn2.0/databases/MAPs/LCDR3/LCDR3_16.pdb'
p2707
aa(lp2708
S'LCDR3_17'
p2709
aS'/gpfs/work/m/mfa5147/OptMAVEn_Zika/OptMAVEn2.0/databases/MAPs/LCDR3/LCDR3_17.pdb'
p2710
aa(lp2711
S'LCDR3_18'
p2712
aS'/gpfs/work/m/mfa5147/OptMAVEn_Zika/OptMAVEn2.0/databases/MAPs/LCDR3/LCDR3_18.pdb'
p2713
aa(lp2714
S'LCDR3_19'
p2715
aS'/gpfs/work/m/mfa5147/OptMAVEn_Zika/OptMAVEn2.0/databases/MAPs/LCDR3/LCDR3_19.pdb'
p2716
aa(lp2717
S'LCDR3_2'
p2718
aS'/gpfs/work/m/mfa5147/OptMAVEn_Zika/OptMAVEn2.0/databases/MAPs/LCDR3/LCDR3_2.pdb'
p2719
aa(lp2720
S'LCDR3_20'
p2721
aS'/gpfs/work/m/mfa5147/OptMAVEn_Zika/OptMAVEn2.0/databases/MAPs/LCDR3/LCDR3_20.pdb'
p2722
aa(lp2723
S'LCDR3_21'
p2724
aS'/gpfs/work/m/mfa5147/OptMAVEn_Zika/OptMAVEn2.0/databases/MAPs/LCDR3/LCDR3_21.pdb'
p2725
aa(lp2726
S'LCDR3_22'
p2727
aS'/gpfs/work/m/mfa5147/OptMAVEn_Zika/OptMAVEn2.0/databases/MAPs/LCDR3/LCDR3_22.pdb'
p2728
aa(lp2729
S'LCDR3_23'
p2730
aS'/gpfs/work/m/mfa5147/OptMAVEn_Zika/OptMAVEn2.0/databases/MAPs/LCDR3/LCDR3_23.pdb'
p2731
aa(lp2732
S'LCDR3_24'
p2733
aS'/gpfs/work/m/mfa5147/OptMAVEn_Zika/OptMAVEn2.0/databases/MAPs/LCDR3/LCDR3_24.pdb'
p2734
aa(lp2735
S'LCDR3_25'
p2736
aS'/gpfs/work/m/mfa5147/OptMAVEn_Zika/OptMAVEn2.0/databases/MAPs/LCDR3/LCDR3_25.pdb'
p2737
aa(lp2738
S'LCDR3_26'
p2739
aS'/gpfs/work/m/mfa5147/OptMAVEn_Zika/OptMAVEn2.0/databases/MAPs/LCDR3/LCDR3_26.pdb'
p2740
aa(lp2741
S'LCDR3_27'
p2742
aS'/gpfs/work/m/mfa5147/OptMAVEn_Zika/OptMAVEn2.0/databases/MAPs/LCDR3/LCDR3_27.pdb'
p2743
aa(lp2744
S'LCDR3_28'
p2745
aS'/gpfs/work/m/mfa5147/OptMAVEn_Zika/OptMAVEn2.0/databases/MAPs/LCDR3/LCDR3_28.pdb'
p2746
aa(lp2747
S'LCDR3_29'
p2748
aS'/gpfs/work/m/mfa5147/OptMAVEn_Zika/OptMAVEn2.0/databases/MAPs/LCDR3/LCDR3_29.pdb'
p2749
aa(lp2750
S'LCDR3_3'
p2751
aS'/gpfs/work/m/mfa5147/OptMAVEn_Zika/OptMAVEn2.0/databases/MAPs/LCDR3/LCDR3_3.pdb'
p2752
aa(lp2753
S'LCDR3_30'
p2754
aS'/gpfs/work/m/mfa5147/OptMAVEn_Zika/OptMAVEn2.0/databases/MAPs/LCDR3/LCDR3_30.pdb'
p2755
aa(lp2756
S'LCDR3_31'
p2757
aS'/gpfs/work/m/mfa5147/OptMAVEn_Zika/OptMAVEn2.0/databases/MAPs/LCDR3/LCDR3_31.pdb'
p2758
aa(lp2759
S'LCDR3_32'
p2760
aS'/gpfs/work/m/mfa5147/OptMAVEn_Zika/OptMAVEn2.0/databases/MAPs/LCDR3/LCDR3_32.pdb'
p2761
aa(lp2762
S'LCDR3_33'
p2763
aS'/gpfs/work/m/mfa5147/OptMAVEn_Zika/OptMAVEn2.0/databases/MAPs/LCDR3/LCDR3_33.pdb'
p2764
aa(lp2765
S'LCDR3_34'
p2766
aS'/gpfs/work/m/mfa5147/OptMAVEn_Zika/OptMAVEn2.0/databases/MAPs/LCDR3/LCDR3_34.pdb'
p2767
aa(lp2768
S'LCDR3_35'
p2769
aS'/gpfs/work/m/mfa5147/OptMAVEn_Zika/OptMAVEn2.0/databases/MAPs/LCDR3/LCDR3_35.pdb'
p2770
aa(lp2771
S'LCDR3_36'
p2772
aS'/gpfs/work/m/mfa5147/OptMAVEn_Zika/OptMAVEn2.0/databases/MAPs/LCDR3/LCDR3_36.pdb'
p2773
aa(lp2774
S'LCDR3_37'
p2775
aS'/gpfs/work/m/mfa5147/OptMAVEn_Zika/OptMAVEn2.0/databases/MAPs/LCDR3/LCDR3_37.pdb'
p2776
aa(lp2777
S'LCDR3_38'
p2778
aS'/gpfs/work/m/mfa5147/OptMAVEn_Zika/OptMAVEn2.0/databases/MAPs/LCDR3/LCDR3_38.pdb'
p2779
aa(lp2780
S'LCDR3_39'
p2781
aS'/gpfs/work/m/mfa5147/OptMAVEn_Zika/OptMAVEn2.0/databases/MAPs/LCDR3/LCDR3_39.pdb'
p2782
aa(lp2783
S'LCDR3_4'
p2784
aS'/gpfs/work/m/mfa5147/OptMAVEn_Zika/OptMAVEn2.0/databases/MAPs/LCDR3/LCDR3_4.pdb'
p2785
aa(lp2786
S'LCDR3_5'
p2787
aS'/gpfs/work/m/mfa5147/OptMAVEn_Zika/OptMAVEn2.0/databases/MAPs/LCDR3/LCDR3_5.pdb'
p2788
aa(lp2789
S'LCDR3_6'
p2790
aS'/gpfs/work/m/mfa5147/OptMAVEn_Zika/OptMAVEn2.0/databases/MAPs/LCDR3/LCDR3_6.pdb'
p2791
aa(lp2792
S'LCDR3_7'
p2793
aS'/gpfs/work/m/mfa5147/OptMAVEn_Zika/OptMAVEn2.0/databases/MAPs/LCDR3/LCDR3_7.pdb'
p2794
aa(lp2795
S'LCDR3_8'
p2796
aS'/gpfs/work/m/mfa5147/OptMAVEn_Zika/OptMAVEn2.0/databases/MAPs/LCDR3/LCDR3_8.pdb'
p2797
aa(lp2798
S'LCDR3_9'
p2799
aS'/gpfs/work/m/mfa5147/OptMAVEn_Zika/OptMAVEn2.0/databases/MAPs/LCDR3/LCDR3_9.pdb'
p2800
aatRp2801
s.